ARM GAS  C:\Users\jsing\AppData\Local\Temp\ccPDvyd2.s 			page 1


   1              		.cpu cortex-m0
   2              		.fpu softvfp
   3              		.eabi_attribute 20, 1
   4              		.eabi_attribute 21, 1
   5              		.eabi_attribute 23, 3
   6              		.eabi_attribute 24, 1
   7              		.eabi_attribute 25, 1
   8              		.eabi_attribute 26, 1
   9              		.eabi_attribute 30, 6
  10              		.eabi_attribute 34, 0
  11              		.eabi_attribute 18, 4
  12              		.code	16
  13              		.file	"main.c"
  14              		.text
  15              	.Ltext0:
  16              		.cfi_sections	.debug_frame
  17              		.global	X_DEFAULT
  18              		.data
  19              		.align	1
  20              		.type	X_DEFAULT, %object
  21              		.size	X_DEFAULT, 2
  22              	X_DEFAULT:
  23 0000 6206     		.short	1634
  24              		.global	Y_DEFAULT
  25              		.align	1
  26              		.type	Y_DEFAULT, %object
  27              		.size	Y_DEFAULT, 2
  28              	Y_DEFAULT:
  29 0002 0606     		.short	1542
  30              		.global	Z_DEFAULT
  31              		.align	1
  32              		.type	Z_DEFAULT, %object
  33              		.size	Z_DEFAULT, 2
  34              	Z_DEFAULT:
  35 0004 FB04     		.short	1275
  36              		.comm	ADC_x_current,2,2
  37              		.comm	ADC_y_current,2,2
  38              		.comm	ADC_z_current,2,2
  39              		.section	.text.colorChange,"ax",%progbits
  40              		.align	2
  41              		.global	colorChange
  42              		.code	16
  43              		.thumb_func
  44              		.type	colorChange, %function
  45              	colorChange:
  46              	.LFB35:
  47              		.file 1 ".\\main.c"
   1:.\main.c      **** /* ========================================
   2:.\main.c      ****  *
   3:.\main.c      ****  * Copyright YOUR COMPANY, THE YEAR
   4:.\main.c      ****  * All Rights Reserved
   5:.\main.c      ****  * UNPUBLISHED, LICENSED SOFTWARE.
   6:.\main.c      ****  *
   7:.\main.c      ****  * CONFIDENTIAL AND PROPRIETARY INFORMATION
   8:.\main.c      ****  * WHICH IS THE PROPERTY OF your company.
   9:.\main.c      ****  *
  10:.\main.c      ****  * ========================================
ARM GAS  C:\Users\jsing\AppData\Local\Temp\ccPDvyd2.s 			page 2


  11:.\main.c      **** */
  12:.\main.c      **** #include <project.h>
  13:.\main.c      **** 
  14:.\main.c      **** void colorChange(int state, uint8 intensity);
  15:.\main.c      **** uint8 Intensity(int state);
  16:.\main.c      **** uint8 Scan_Accelerometer();
  17:.\main.c      **** 
  18:.\main.c      **** int16 X_DEFAULT = 0x0662;
  19:.\main.c      **** int16 Y_DEFAULT = 0x0606;
  20:.\main.c      **** int16 Z_DEFAULT = 0x04FB;
  21:.\main.c      **** int16 ADC_x_current, ADC_y_current, ADC_z_current;
  22:.\main.c      **** 
  23:.\main.c      **** 
  24:.\main.c      **** void colorChange(int state, uint8 intensity){
  48              		.loc 1 24 0
  49              		.cfi_startproc
  50 0000 80B5     		push	{r7, lr}
  51              		.cfi_def_cfa_offset 8
  52              		.cfi_offset 7, -8
  53              		.cfi_offset 14, -4
  54 0002 82B0     		sub	sp, sp, #8
  55              		.cfi_def_cfa_offset 16
  56 0004 00AF     		add	r7, sp, #0
  57              		.cfi_def_cfa_register 7
  58 0006 7860     		str	r0, [r7, #4]
  59 0008 0A1C     		mov	r2, r1
  60 000a FB1C     		add	r3, r7, #3
  61 000c 1A70     		strb	r2, [r3]
  25:.\main.c      ****   switch (state){
  62              		.loc 1 25 0
  63 000e 7B68     		ldr	r3, [r7, #4]
  64 0010 022B     		cmp	r3, #2
  65 0012 14D0     		beq	.L3
  66 0014 02DC     		bgt	.L4
  67 0016 012B     		cmp	r3, #1
  68 0018 05D0     		beq	.L5
  69 001a 36E0     		b	.L2
  70              	.L4:
  71 001c 032B     		cmp	r3, #3
  72 001e 1AD0     		beq	.L6
  73 0020 042B     		cmp	r3, #4
  74 0022 24D0     		beq	.L7
  75 0024 31E0     		b	.L2
  76              	.L5:
  26:.\main.c      ****     case 1:
  27:.\main.c      ****         /*Red*/
  28:.\main.c      ****         RED_Write(intensity);
  77              		.loc 1 28 0
  78 0026 FB1C     		add	r3, r7, #3
  79 0028 1B78     		ldrb	r3, [r3]
  80 002a 181C     		mov	r0, r3
  81 002c FFF7FEFF 		bl	RED_Write
  29:.\main.c      ****         BLUE_Write(0xFF);
  82              		.loc 1 29 0
  83 0030 FF20     		mov	r0, #255
  84 0032 FFF7FEFF 		bl	BLUE_Write
  30:.\main.c      ****         GREEN_Write(0xFF);
ARM GAS  C:\Users\jsing\AppData\Local\Temp\ccPDvyd2.s 			page 3


  85              		.loc 1 30 0
  86 0036 FF20     		mov	r0, #255
  87 0038 FFF7FEFF 		bl	GREEN_Write
  31:.\main.c      ****         break;
  88              		.loc 1 31 0
  89 003c 2FE0     		b	.L1
  90              	.L3:
  32:.\main.c      ****     case 2:
  33:.\main.c      ****         /*Blue*/
  34:.\main.c      ****         RED_Write(0xFF);
  91              		.loc 1 34 0
  92 003e FF20     		mov	r0, #255
  93 0040 FFF7FEFF 		bl	RED_Write
  35:.\main.c      ****         BLUE_Write(intensity);
  94              		.loc 1 35 0
  95 0044 FB1C     		add	r3, r7, #3
  96 0046 1B78     		ldrb	r3, [r3]
  97 0048 181C     		mov	r0, r3
  98 004a FFF7FEFF 		bl	BLUE_Write
  36:.\main.c      ****         GREEN_Write(0xFF);
  99              		.loc 1 36 0
 100 004e FF20     		mov	r0, #255
 101 0050 FFF7FEFF 		bl	GREEN_Write
  37:.\main.c      ****         break;
 102              		.loc 1 37 0
 103 0054 23E0     		b	.L1
 104              	.L6:
  38:.\main.c      ****     case 3:
  39:.\main.c      ****         /*Green*/
  40:.\main.c      ****         RED_Write(0xFF);
 105              		.loc 1 40 0
 106 0056 FF20     		mov	r0, #255
 107 0058 FFF7FEFF 		bl	RED_Write
  41:.\main.c      ****         BLUE_Write(0xFF);
 108              		.loc 1 41 0
 109 005c FF20     		mov	r0, #255
 110 005e FFF7FEFF 		bl	BLUE_Write
  42:.\main.c      ****         GREEN_Write(intensity);
 111              		.loc 1 42 0
 112 0062 FB1C     		add	r3, r7, #3
 113 0064 1B78     		ldrb	r3, [r3]
 114 0066 181C     		mov	r0, r3
 115 0068 FFF7FEFF 		bl	GREEN_Write
  43:.\main.c      ****         break;
 116              		.loc 1 43 0
 117 006c 17E0     		b	.L1
 118              	.L7:
  44:.\main.c      ****     case 4:
  45:.\main.c      ****         /*purple*/
  46:.\main.c      ****         RED_Write(intensity);
 119              		.loc 1 46 0
 120 006e FB1C     		add	r3, r7, #3
 121 0070 1B78     		ldrb	r3, [r3]
 122 0072 181C     		mov	r0, r3
 123 0074 FFF7FEFF 		bl	RED_Write
  47:.\main.c      ****         BLUE_Write(intensity);
 124              		.loc 1 47 0
ARM GAS  C:\Users\jsing\AppData\Local\Temp\ccPDvyd2.s 			page 4


 125 0078 FB1C     		add	r3, r7, #3
 126 007a 1B78     		ldrb	r3, [r3]
 127 007c 181C     		mov	r0, r3
 128 007e FFF7FEFF 		bl	BLUE_Write
  48:.\main.c      ****         GREEN_Write(0xFF);
 129              		.loc 1 48 0
 130 0082 FF20     		mov	r0, #255
 131 0084 FFF7FEFF 		bl	GREEN_Write
  49:.\main.c      ****         break;
 132              		.loc 1 49 0
 133 0088 09E0     		b	.L1
 134              	.L2:
  50:.\main.c      ****     default:
  51:.\main.c      ****         RED_Write(0x00);
 135              		.loc 1 51 0
 136 008a 0020     		mov	r0, #0
 137 008c FFF7FEFF 		bl	RED_Write
  52:.\main.c      ****         BLUE_Write(0x00);
 138              		.loc 1 52 0
 139 0090 0020     		mov	r0, #0
 140 0092 FFF7FEFF 		bl	BLUE_Write
  53:.\main.c      ****         GREEN_Write(0x00);
 141              		.loc 1 53 0
 142 0096 0020     		mov	r0, #0
 143 0098 FFF7FEFF 		bl	GREEN_Write
  54:.\main.c      ****         break;
 144              		.loc 1 54 0
 145 009c C046     		mov	r8, r8
 146              	.L1:
  55:.\main.c      ****     }
  56:.\main.c      **** }
 147              		.loc 1 56 0
 148 009e BD46     		mov	sp, r7
 149 00a0 02B0     		add	sp, sp, #8
 150              		@ sp needed
 151 00a2 80BD     		pop	{r7, pc}
 152              		.cfi_endproc
 153              	.LFE35:
 154              		.size	colorChange, .-colorChange
 155              		.section	.text.Intensity,"ax",%progbits
 156              		.align	2
 157              		.global	Intensity
 158              		.code	16
 159              		.thumb_func
 160              		.type	Intensity, %function
 161              	Intensity:
 162              	.LFB36:
  57:.\main.c      **** uint8 Intensity(state){
 163              		.loc 1 57 0
 164              		.cfi_startproc
 165 0000 80B5     		push	{r7, lr}
 166              		.cfi_def_cfa_offset 8
 167              		.cfi_offset 7, -8
 168              		.cfi_offset 14, -4
 169 0002 84B0     		sub	sp, sp, #16
 170              		.cfi_def_cfa_offset 24
 171 0004 00AF     		add	r7, sp, #0
ARM GAS  C:\Users\jsing\AppData\Local\Temp\ccPDvyd2.s 			page 5


 172              		.cfi_def_cfa_register 7
 173 0006 7860     		str	r0, [r7, #4]
  58:.\main.c      ****     uint8 intensity;
  59:.\main.c      ****     switch(state){
 174              		.loc 1 59 0
 175 0008 7B68     		ldr	r3, [r7, #4]
 176 000a 022B     		cmp	r3, #2
 177 000c 0DD0     		beq	.L11
 178 000e 02DC     		bgt	.L12
 179 0010 012B     		cmp	r3, #1
 180 0012 05D0     		beq	.L13
 181 0014 18E0     		b	.L10
 182              	.L12:
 183 0016 032B     		cmp	r3, #3
 184 0018 0CD0     		beq	.L14
 185 001a 042B     		cmp	r3, #4
 186 001c 0FD0     		beq	.L15
 187 001e 13E0     		b	.L10
 188              	.L13:
  60:.\main.c      ****         case 1:
  61:.\main.c      ****             /*max level*/
  62:.\main.c      ****             intensity = 0x00;
 189              		.loc 1 62 0
 190 0020 3B1C     		mov	r3, r7
 191 0022 0F33     		add	r3, r3, #15
 192 0024 0022     		mov	r2, #0
 193 0026 1A70     		strb	r2, [r3]
  63:.\main.c      ****         break;
 194              		.loc 1 63 0
 195 0028 13E0     		b	.L16
 196              	.L11:
  64:.\main.c      ****         case 2:
  65:.\main.c      ****             /*medium*/
  66:.\main.c      ****             intensity = 0x55;
 197              		.loc 1 66 0
 198 002a 3B1C     		mov	r3, r7
 199 002c 0F33     		add	r3, r3, #15
 200 002e 5522     		mov	r2, #85
 201 0030 1A70     		strb	r2, [r3]
  67:.\main.c      ****         break;
 202              		.loc 1 67 0
 203 0032 0EE0     		b	.L16
 204              	.L14:
  68:.\main.c      ****         case 3:
  69:.\main.c      ****             /*min*/
  70:.\main.c      ****             intensity = 0xAA;
 205              		.loc 1 70 0
 206 0034 3B1C     		mov	r3, r7
 207 0036 0F33     		add	r3, r3, #15
 208 0038 AA22     		mov	r2, #170
 209 003a 1A70     		strb	r2, [r3]
  71:.\main.c      ****         break;
 210              		.loc 1 71 0
 211 003c 09E0     		b	.L16
 212              	.L15:
  72:.\main.c      ****         case 4:
  73:.\main.c      ****             /*off*/
ARM GAS  C:\Users\jsing\AppData\Local\Temp\ccPDvyd2.s 			page 6


  74:.\main.c      ****             intensity = 0xFF;
 213              		.loc 1 74 0
 214 003e 3B1C     		mov	r3, r7
 215 0040 0F33     		add	r3, r3, #15
 216 0042 FF22     		mov	r2, #255
 217 0044 1A70     		strb	r2, [r3]
  75:.\main.c      ****         break;
 218              		.loc 1 75 0
 219 0046 04E0     		b	.L16
 220              	.L10:
  76:.\main.c      ****         default:
  77:.\main.c      ****             intensity = 0x00;
 221              		.loc 1 77 0
 222 0048 3B1C     		mov	r3, r7
 223 004a 0F33     		add	r3, r3, #15
 224 004c 0022     		mov	r2, #0
 225 004e 1A70     		strb	r2, [r3]
  78:.\main.c      ****         break;        
 226              		.loc 1 78 0
 227 0050 C046     		mov	r8, r8
 228              	.L16:
  79:.\main.c      ****     }
  80:.\main.c      ****     return intensity;
 229              		.loc 1 80 0
 230 0052 3B1C     		mov	r3, r7
 231 0054 0F33     		add	r3, r3, #15
 232 0056 1B78     		ldrb	r3, [r3]
  81:.\main.c      **** }
 233              		.loc 1 81 0
 234 0058 181C     		mov	r0, r3
 235 005a BD46     		mov	sp, r7
 236 005c 04B0     		add	sp, sp, #16
 237              		@ sp needed
 238 005e 80BD     		pop	{r7, pc}
 239              		.cfi_endproc
 240              	.LFE36:
 241              		.size	Intensity, .-Intensity
 242              		.section	.text.Scan_Accelerometer,"ax",%progbits
 243              		.align	2
 244              		.global	Scan_Accelerometer
 245              		.code	16
 246              		.thumb_func
 247              		.type	Scan_Accelerometer, %function
 248              	Scan_Accelerometer:
 249              	.LFB37:
  82:.\main.c      **** uint8 Scan_Accelerometer()
  83:.\main.c      **** {  
 250              		.loc 1 83 0
 251              		.cfi_startproc
 252 0000 80B5     		push	{r7, lr}
 253              		.cfi_def_cfa_offset 8
 254              		.cfi_offset 7, -8
 255              		.cfi_offset 14, -4
 256 0002 00AF     		add	r7, sp, #0
 257              		.cfi_def_cfa_register 7
  84:.\main.c      **** 	
  85:.\main.c      **** 	if(Sensor_ADC_IsEndConversion(Sensor_ADC_RETURN_STATUS))
ARM GAS  C:\Users\jsing\AppData\Local\Temp\ccPDvyd2.s 			page 7


 258              		.loc 1 85 0
 259 0004 0120     		mov	r0, #1
 260 0006 FFF7FEFF 		bl	Sensor_ADC_IsEndConversion
 261 000a 031C     		mov	r3, r0
 262 000c 002B     		cmp	r3, #0
 263 000e 00D1     		bne	.LCB203
 264 0010 95E0     		b	.L19	@long jump
 265              	.LCB203:
  86:.\main.c      **** 	{
  87:.\main.c      **** 		ADC_x_current = Sensor_ADC_CountsTo_mVolts(0, Sensor_ADC_GetResult16(0));
 266              		.loc 1 87 0
 267 0012 0020     		mov	r0, #0
 268 0014 FFF7FEFF 		bl	Sensor_ADC_GetResult16
 269 0018 031C     		mov	r3, r0
 270 001a 0020     		mov	r0, #0
 271 001c 191C     		mov	r1, r3
 272 001e FFF7FEFF 		bl	Sensor_ADC_CountsTo_mVolts
 273 0022 031C     		mov	r3, r0
 274 0024 1A1C     		mov	r2, r3
 275 0026 484B     		ldr	r3, .L26
 276 0028 1A80     		strh	r2, [r3]
  88:.\main.c      **** 		ADC_y_current = Sensor_ADC_CountsTo_mVolts(1, Sensor_ADC_GetResult16(1));
 277              		.loc 1 88 0
 278 002a 0120     		mov	r0, #1
 279 002c FFF7FEFF 		bl	Sensor_ADC_GetResult16
 280 0030 031C     		mov	r3, r0
 281 0032 0120     		mov	r0, #1
 282 0034 191C     		mov	r1, r3
 283 0036 FFF7FEFF 		bl	Sensor_ADC_CountsTo_mVolts
 284 003a 031C     		mov	r3, r0
 285 003c 1A1C     		mov	r2, r3
 286 003e 434B     		ldr	r3, .L26+4
 287 0040 1A80     		strh	r2, [r3]
  89:.\main.c      **** 		ADC_z_current = Sensor_ADC_CountsTo_mVolts(2, Sensor_ADC_GetResult16(2));
 288              		.loc 1 89 0
 289 0042 0220     		mov	r0, #2
 290 0044 FFF7FEFF 		bl	Sensor_ADC_GetResult16
 291 0048 031C     		mov	r3, r0
 292 004a 0220     		mov	r0, #2
 293 004c 191C     		mov	r1, r3
 294 004e FFF7FEFF 		bl	Sensor_ADC_CountsTo_mVolts
 295 0052 031C     		mov	r3, r0
 296 0054 1A1C     		mov	r2, r3
 297 0056 3E4B     		ldr	r3, .L26+8
 298 0058 1A80     		strh	r2, [r3]
  90:.\main.c      **** 		/*Normal gesture idetified*/
  91:.\main.c      **** 		if((ADC_y_current>=(Y_DEFAULT-0x00A0) && ADC_y_current<= (Y_DEFAULT+0x00A0))&&(ADC_z_current>=(Z_
 299              		.loc 1 91 0
 300 005a 3C4B     		ldr	r3, .L26+4
 301 005c 1B88     		ldrh	r3, [r3]
 302 005e 1AB2     		sxth	r2, r3
 303 0060 3C4B     		ldr	r3, .L26+12
 304 0062 1B88     		ldrh	r3, [r3]
 305 0064 1BB2     		sxth	r3, r3
 306 0066 A03B     		sub	r3, r3, #160
 307 0068 9A42     		cmp	r2, r3
 308 006a 2EDB     		blt	.L20
ARM GAS  C:\Users\jsing\AppData\Local\Temp\ccPDvyd2.s 			page 8


 309              		.loc 1 91 0 is_stmt 0 discriminator 1
 310 006c 374B     		ldr	r3, .L26+4
 311 006e 1B88     		ldrh	r3, [r3]
 312 0070 1AB2     		sxth	r2, r3
 313 0072 384B     		ldr	r3, .L26+12
 314 0074 1B88     		ldrh	r3, [r3]
 315 0076 1BB2     		sxth	r3, r3
 316 0078 A033     		add	r3, r3, #160
 317 007a 9A42     		cmp	r2, r3
 318 007c 25DC     		bgt	.L20
 319 007e 344B     		ldr	r3, .L26+8
 320 0080 1B88     		ldrh	r3, [r3]
 321 0082 1AB2     		sxth	r2, r3
 322 0084 344B     		ldr	r3, .L26+16
 323 0086 1B88     		ldrh	r3, [r3]
 324 0088 1BB2     		sxth	r3, r3
 325 008a 403B     		sub	r3, r3, #64
 326 008c 9A42     		cmp	r2, r3
 327 008e 1CDB     		blt	.L20
 328 0090 2F4B     		ldr	r3, .L26+8
 329 0092 1B88     		ldrh	r3, [r3]
 330 0094 1AB2     		sxth	r2, r3
 331 0096 304B     		ldr	r3, .L26+16
 332 0098 1B88     		ldrh	r3, [r3]
 333 009a 1BB2     		sxth	r3, r3
 334 009c 4033     		add	r3, r3, #64
 335 009e 9A42     		cmp	r2, r3
 336 00a0 13DC     		bgt	.L20
 337 00a2 294B     		ldr	r3, .L26
 338 00a4 1B88     		ldrh	r3, [r3]
 339 00a6 1AB2     		sxth	r2, r3
 340 00a8 2C4B     		ldr	r3, .L26+20
 341 00aa 1B88     		ldrh	r3, [r3]
 342 00ac 1BB2     		sxth	r3, r3
 343 00ae A03B     		sub	r3, r3, #160
 344 00b0 9A42     		cmp	r2, r3
 345 00b2 0ADB     		blt	.L20
 346 00b4 244B     		ldr	r3, .L26
 347 00b6 1B88     		ldrh	r3, [r3]
 348 00b8 1AB2     		sxth	r2, r3
 349 00ba 284B     		ldr	r3, .L26+20
 350 00bc 1B88     		ldrh	r3, [r3]
 351 00be 1BB2     		sxth	r3, r3
 352 00c0 A033     		add	r3, r3, #160
 353 00c2 9A42     		cmp	r2, r3
 354 00c4 01DC     		bgt	.L20
  92:.\main.c      **** 		{
  93:.\main.c      **** 			return 1;
 355              		.loc 1 93 0 is_stmt 1
 356 00c6 0123     		mov	r3, #1
 357 00c8 3AE0     		b	.L21
 358              	.L20:
  94:.\main.c      **** 		}
  95:.\main.c      **** 		/*Backward gesture idetified*/
  96:.\main.c      **** 		if((ADC_y_current<=0x0566)&& (ADC_z_current>=0x051E))
 359              		.loc 1 96 0
 360 00ca 204B     		ldr	r3, .L26+4
ARM GAS  C:\Users\jsing\AppData\Local\Temp\ccPDvyd2.s 			page 9


 361 00cc 1B88     		ldrh	r3, [r3]
 362 00ce 1AB2     		sxth	r2, r3
 363 00d0 234B     		ldr	r3, .L26+24
 364 00d2 9A42     		cmp	r2, r3
 365 00d4 07DC     		bgt	.L22
 366              		.loc 1 96 0 is_stmt 0 discriminator 1
 367 00d6 1E4B     		ldr	r3, .L26+8
 368 00d8 1B88     		ldrh	r3, [r3]
 369 00da 1AB2     		sxth	r2, r3
 370 00dc 214B     		ldr	r3, .L26+28
 371 00de 9A42     		cmp	r2, r3
 372 00e0 01DD     		ble	.L22
  97:.\main.c      **** 		{
  98:.\main.c      **** 			return 2;
 373              		.loc 1 98 0 is_stmt 1
 374 00e2 0223     		mov	r3, #2
 375 00e4 2CE0     		b	.L21
 376              	.L22:
  99:.\main.c      **** 		}
 100:.\main.c      **** 		/*Forward gesture idetified*/
 101:.\main.c      **** 		if((ADC_y_current>=0x06a6)&& (ADC_z_current>=0x051E))
 377              		.loc 1 101 0
 378 00e6 194B     		ldr	r3, .L26+4
 379 00e8 1B88     		ldrh	r3, [r3]
 380 00ea 1AB2     		sxth	r2, r3
 381 00ec 1E4B     		ldr	r3, .L26+32
 382 00ee 9A42     		cmp	r2, r3
 383 00f0 07DD     		ble	.L23
 384              		.loc 1 101 0 is_stmt 0 discriminator 1
 385 00f2 174B     		ldr	r3, .L26+8
 386 00f4 1B88     		ldrh	r3, [r3]
 387 00f6 1AB2     		sxth	r2, r3
 388 00f8 1A4B     		ldr	r3, .L26+28
 389 00fa 9A42     		cmp	r2, r3
 390 00fc 01DD     		ble	.L23
 102:.\main.c      **** 		{
 103:.\main.c      **** 			return 3;
 391              		.loc 1 103 0 is_stmt 1
 392 00fe 0323     		mov	r3, #3
 393 0100 1EE0     		b	.L21
 394              	.L23:
 104:.\main.c      **** 		}
 105:.\main.c      **** 		/*Right gesture idetified*/
 106:.\main.c      **** 		if((ADC_x_current>=0x06f0)&& (ADC_z_current>=0x0590))
 395              		.loc 1 106 0
 396 0102 114B     		ldr	r3, .L26
 397 0104 1B88     		ldrh	r3, [r3]
 398 0106 1AB2     		sxth	r2, r3
 399 0108 184B     		ldr	r3, .L26+36
 400 010a 9A42     		cmp	r2, r3
 401 010c 07DD     		ble	.L24
 402              		.loc 1 106 0 is_stmt 0 discriminator 1
 403 010e 104B     		ldr	r3, .L26+8
 404 0110 1B88     		ldrh	r3, [r3]
 405 0112 1AB2     		sxth	r2, r3
 406 0114 164B     		ldr	r3, .L26+40
 407 0116 9A42     		cmp	r2, r3
ARM GAS  C:\Users\jsing\AppData\Local\Temp\ccPDvyd2.s 			page 10


 408 0118 01DD     		ble	.L24
 107:.\main.c      **** 		{
 108:.\main.c      **** 			return 4;
 409              		.loc 1 108 0 is_stmt 1
 410 011a 0423     		mov	r3, #4
 411 011c 10E0     		b	.L21
 412              	.L24:
 109:.\main.c      **** 		}
 110:.\main.c      **** 		/*Left gesture idetified*/
 111:.\main.c      **** 		if((ADC_x_current<=0x05E2)&& (ADC_z_current>=0x0590))
 413              		.loc 1 111 0
 414 011e 0A4B     		ldr	r3, .L26
 415 0120 1B88     		ldrh	r3, [r3]
 416 0122 1AB2     		sxth	r2, r3
 417 0124 134B     		ldr	r3, .L26+44
 418 0126 9A42     		cmp	r2, r3
 419 0128 07DC     		bgt	.L25
 420              		.loc 1 111 0 is_stmt 0 discriminator 1
 421 012a 094B     		ldr	r3, .L26+8
 422 012c 1B88     		ldrh	r3, [r3]
 423 012e 1AB2     		sxth	r2, r3
 424 0130 0F4B     		ldr	r3, .L26+40
 425 0132 9A42     		cmp	r2, r3
 426 0134 01DD     		ble	.L25
 112:.\main.c      **** 		{
 113:.\main.c      **** 			return 5;
 427              		.loc 1 113 0 is_stmt 1
 428 0136 0523     		mov	r3, #5
 429 0138 02E0     		b	.L21
 430              	.L25:
 114:.\main.c      **** 		}
 115:.\main.c      **** 		return 0;/*No change of state */
 431              		.loc 1 115 0
 432 013a 0023     		mov	r3, #0
 433 013c 00E0     		b	.L21
 434              	.L19:
 116:.\main.c      **** 	
 117:.\main.c      ****     }
 118:.\main.c      ****     else
 119:.\main.c      **** 		return 0;/*ADC is busy. Return 0 */
 435              		.loc 1 119 0
 436 013e 0023     		mov	r3, #0
 437              	.L21:
 120:.\main.c      **** }
 438              		.loc 1 120 0
 439 0140 181C     		mov	r0, r3
 440 0142 BD46     		mov	sp, r7
 441              		@ sp needed
 442 0144 80BD     		pop	{r7, pc}
 443              	.L27:
 444 0146 C046     		.align	2
 445              	.L26:
 446 0148 00000000 		.word	ADC_x_current
 447 014c 00000000 		.word	ADC_y_current
 448 0150 00000000 		.word	ADC_z_current
 449 0154 00000000 		.word	Y_DEFAULT
 450 0158 00000000 		.word	Z_DEFAULT
ARM GAS  C:\Users\jsing\AppData\Local\Temp\ccPDvyd2.s 			page 11


 451 015c 00000000 		.word	X_DEFAULT
 452 0160 66050000 		.word	1382
 453 0164 1D050000 		.word	1309
 454 0168 A5060000 		.word	1701
 455 016c EF060000 		.word	1775
 456 0170 8F050000 		.word	1423
 457 0174 E2050000 		.word	1506
 458              		.cfi_endproc
 459              	.LFE37:
 460              		.size	Scan_Accelerometer, .-Scan_Accelerometer
 461              		.section	.text.main,"ax",%progbits
 462              		.align	2
 463              		.global	main
 464              		.code	16
 465              		.thumb_func
 466              		.type	main, %function
 467              	main:
 468              	.LFB38:
 121:.\main.c      **** int main()
 122:.\main.c      **** {
 469              		.loc 1 122 0
 470              		.cfi_startproc
 471 0000 90B5     		push	{r4, r7, lr}
 472              		.cfi_def_cfa_offset 12
 473              		.cfi_offset 4, -12
 474              		.cfi_offset 7, -8
 475              		.cfi_offset 14, -4
 476 0002 87B0     		sub	sp, sp, #28
 477              		.cfi_def_cfa_offset 40
 478 0004 00AF     		add	r7, sp, #0
 479              		.cfi_def_cfa_register 7
 123:.\main.c      ****     /*intialize state variables*/
 124:.\main.c      ****     int colorState = 1;
 480              		.loc 1 124 0
 481 0006 0123     		mov	r3, #1
 482 0008 7B61     		str	r3, [r7, #20]
 125:.\main.c      ****     int intensityState = 1;
 483              		.loc 1 125 0
 484 000a 0123     		mov	r3, #1
 485 000c 3B61     		str	r3, [r7, #16]
 126:.\main.c      ****     int curr_Intensity;
 127:.\main.c      ****     uint8 gesture;
 128:.\main.c      ****     /*delay counter*/
 129:.\main.c      ****     int i=0;
 486              		.loc 1 129 0
 487 000e 0023     		mov	r3, #0
 488 0010 FB60     		str	r3, [r7, #12]
 130:.\main.c      ****     
 131:.\main.c      ****     /* Place your initialization/startup code here (e.g. MyInst_Start()) */
 132:.\main.c      **** 
 133:.\main.c      ****         Sensor_ADC_Start();
 489              		.loc 1 133 0
 490 0012 FFF7FEFF 		bl	Sensor_ADC_Start
 134:.\main.c      ****         Sensor_ADC_StartConvert();
 491              		.loc 1 134 0
 492 0016 FFF7FEFF 		bl	Sensor_ADC_StartConvert
 135:.\main.c      ****         
ARM GAS  C:\Users\jsing\AppData\Local\Temp\ccPDvyd2.s 			page 12


 136:.\main.c      ****     CyGlobalIntEnable;  /* Uncomment this line to enable global interrupts. */
 493              		.loc 1 136 0
 494              	@ 136 ".\main.c" 1
 495 001a 62B6     		CPSIE   i
 496              	@ 0 "" 2
 497              		.code	16
 498              	.L39:
 137:.\main.c      ****     for(;;)
 138:.\main.c      ****     {
 139:.\main.c      ****         gesture = Scan_Accelerometer();
 499              		.loc 1 139 0
 500 001c 3C1C     		mov	r4, r7
 501 001e 0B34     		add	r4, r4, #11
 502 0020 FFF7FEFF 		bl	Scan_Accelerometer
 503 0024 031C     		mov	r3, r0
 504 0026 2370     		strb	r3, [r4]
 140:.\main.c      ****         //LEFT
 141:.\main.c      ****         if(gesture==5){
 505              		.loc 1 141 0
 506 0028 3B1C     		mov	r3, r7
 507 002a 0B33     		add	r3, r3, #11
 508 002c 1B78     		ldrb	r3, [r3]
 509 002e 052B     		cmp	r3, #5
 510 0030 0AD1     		bne	.L29
 142:.\main.c      ****             if (colorState>1){
 511              		.loc 1 142 0
 512 0032 7B69     		ldr	r3, [r7, #20]
 513 0034 012B     		cmp	r3, #1
 514 0036 02DD     		ble	.L30
 143:.\main.c      ****                 colorState--;
 515              		.loc 1 143 0
 516 0038 7B69     		ldr	r3, [r7, #20]
 517 003a 013B     		sub	r3, r3, #1
 518 003c 7B61     		str	r3, [r7, #20]
 519              	.L30:
 144:.\main.c      ****             }
 145:.\main.c      ****             if (colorState<=1){
 520              		.loc 1 145 0
 521 003e 7B69     		ldr	r3, [r7, #20]
 522 0040 012B     		cmp	r3, #1
 523 0042 01DC     		bgt	.L29
 146:.\main.c      ****                 colorState = 1;
 524              		.loc 1 146 0
 525 0044 0123     		mov	r3, #1
 526 0046 7B61     		str	r3, [r7, #20]
 527              	.L29:
 147:.\main.c      ****             }
 148:.\main.c      ****         }
 149:.\main.c      ****         //RIGHT
 150:.\main.c      ****         if(gesture==4){
 528              		.loc 1 150 0
 529 0048 3B1C     		mov	r3, r7
 530 004a 0B33     		add	r3, r3, #11
 531 004c 1B78     		ldrb	r3, [r3]
 532 004e 042B     		cmp	r3, #4
 533 0050 0AD1     		bne	.L31
 151:.\main.c      ****             if (colorState < 4){
ARM GAS  C:\Users\jsing\AppData\Local\Temp\ccPDvyd2.s 			page 13


 534              		.loc 1 151 0
 535 0052 7B69     		ldr	r3, [r7, #20]
 536 0054 032B     		cmp	r3, #3
 537 0056 02DC     		bgt	.L32
 152:.\main.c      ****                 colorState++;
 538              		.loc 1 152 0
 539 0058 7B69     		ldr	r3, [r7, #20]
 540 005a 0133     		add	r3, r3, #1
 541 005c 7B61     		str	r3, [r7, #20]
 542              	.L32:
 153:.\main.c      ****             }
 154:.\main.c      ****             if (colorState >= 4){
 543              		.loc 1 154 0
 544 005e 7B69     		ldr	r3, [r7, #20]
 545 0060 032B     		cmp	r3, #3
 546 0062 01DD     		ble	.L31
 155:.\main.c      ****                 colorState = 4;
 547              		.loc 1 155 0
 548 0064 0423     		mov	r3, #4
 549 0066 7B61     		str	r3, [r7, #20]
 550              	.L31:
 156:.\main.c      ****             }
 157:.\main.c      ****         }
 158:.\main.c      ****         //UP
 159:.\main.c      ****         if(gesture==3){
 551              		.loc 1 159 0
 552 0068 3B1C     		mov	r3, r7
 553 006a 0B33     		add	r3, r3, #11
 554 006c 1B78     		ldrb	r3, [r3]
 555 006e 032B     		cmp	r3, #3
 556 0070 0AD1     		bne	.L33
 160:.\main.c      ****             if(intensityState < 4){
 557              		.loc 1 160 0
 558 0072 3B69     		ldr	r3, [r7, #16]
 559 0074 032B     		cmp	r3, #3
 560 0076 02DC     		bgt	.L34
 161:.\main.c      ****                 intensityState++;
 561              		.loc 1 161 0
 562 0078 3B69     		ldr	r3, [r7, #16]
 563 007a 0133     		add	r3, r3, #1
 564 007c 3B61     		str	r3, [r7, #16]
 565              	.L34:
 162:.\main.c      ****             }
 163:.\main.c      ****             if(intensityState >= 4){
 566              		.loc 1 163 0
 567 007e 3B69     		ldr	r3, [r7, #16]
 568 0080 032B     		cmp	r3, #3
 569 0082 01DD     		ble	.L33
 164:.\main.c      ****                 intensityState = 4;
 570              		.loc 1 164 0
 571 0084 0423     		mov	r3, #4
 572 0086 3B61     		str	r3, [r7, #16]
 573              	.L33:
 165:.\main.c      ****             }
 166:.\main.c      ****         }
 167:.\main.c      ****         //DOWN
 168:.\main.c      ****         if(gesture==2){
ARM GAS  C:\Users\jsing\AppData\Local\Temp\ccPDvyd2.s 			page 14


 574              		.loc 1 168 0
 575 0088 3B1C     		mov	r3, r7
 576 008a 0B33     		add	r3, r3, #11
 577 008c 1B78     		ldrb	r3, [r3]
 578 008e 022B     		cmp	r3, #2
 579 0090 0AD1     		bne	.L35
 169:.\main.c      ****         if(intensityState >= 1){
 580              		.loc 1 169 0
 581 0092 3B69     		ldr	r3, [r7, #16]
 582 0094 002B     		cmp	r3, #0
 583 0096 02DD     		ble	.L36
 170:.\main.c      ****                 intensityState++;
 584              		.loc 1 170 0
 585 0098 3B69     		ldr	r3, [r7, #16]
 586 009a 0133     		add	r3, r3, #1
 587 009c 3B61     		str	r3, [r7, #16]
 588              	.L36:
 171:.\main.c      ****             }
 172:.\main.c      ****             if(intensityState < 1){
 589              		.loc 1 172 0
 590 009e 3B69     		ldr	r3, [r7, #16]
 591 00a0 002B     		cmp	r3, #0
 592 00a2 01DC     		bgt	.L35
 173:.\main.c      ****                 intensityState = 1;
 593              		.loc 1 173 0
 594 00a4 0123     		mov	r3, #1
 595 00a6 3B61     		str	r3, [r7, #16]
 596              	.L35:
 174:.\main.c      ****             }
 175:.\main.c      ****         }
 176:.\main.c      ****         curr_Intensity = Intensity(intensityState);
 597              		.loc 1 176 0
 598 00a8 3B69     		ldr	r3, [r7, #16]
 599 00aa 181C     		mov	r0, r3
 600 00ac FFF7FEFF 		bl	Intensity
 601 00b0 031C     		mov	r3, r0
 602 00b2 7B60     		str	r3, [r7, #4]
 177:.\main.c      ****         colorChange(colorState , curr_Intensity);
 603              		.loc 1 177 0
 604 00b4 7B68     		ldr	r3, [r7, #4]
 605 00b6 DBB2     		uxtb	r3, r3
 606 00b8 7A69     		ldr	r2, [r7, #20]
 607 00ba 101C     		mov	r0, r2
 608 00bc 191C     		mov	r1, r3
 609 00be FFF7FEFF 		bl	colorChange
 178:.\main.c      ****         
 179:.\main.c      ****         while(i<1000000){
 610              		.loc 1 179 0
 611 00c2 02E0     		b	.L37
 612              	.L38:
 180:.\main.c      ****             i++;
 613              		.loc 1 180 0
 614 00c4 FB68     		ldr	r3, [r7, #12]
 615 00c6 0133     		add	r3, r3, #1
 616 00c8 FB60     		str	r3, [r7, #12]
 617              	.L37:
 179:.\main.c      ****         while(i<1000000){
ARM GAS  C:\Users\jsing\AppData\Local\Temp\ccPDvyd2.s 			page 15


 618              		.loc 1 179 0 discriminator 1
 619 00ca FA68     		ldr	r2, [r7, #12]
 620 00cc 014B     		ldr	r3, .L40
 621 00ce 9A42     		cmp	r2, r3
 622 00d0 F8DD     		ble	.L38
 181:.\main.c      ****             //wait
 182:.\main.c      ****         }
 183:.\main.c      ****        
 184:.\main.c      ****         
 185:.\main.c      ****         
 186:.\main.c      ****         
 187:.\main.c      ****     
 188:.\main.c      ****     }
 623              		.loc 1 188 0
 624 00d2 A3E7     		b	.L39
 625              	.L41:
 626              		.align	2
 627              	.L40:
 628 00d4 3F420F00 		.word	999999
 629              		.cfi_endproc
 630              	.LFE38:
 631              		.size	main, .-main
 632              		.text
 633              	.Letext0:
 634              		.file 2 ".\\Generated_Source\\PSoC4/cytypes.h"