ARM GAS  C:\Users\jsing\AppData\Local\Temp\cc2jtBf9.s 			page 1


   1              		.cpu cortex-m0
   2              		.fpu softvfp
   3              		.eabi_attribute 20, 1
   4              		.eabi_attribute 21, 1
   5              		.eabi_attribute 23, 3
   6              		.eabi_attribute 24, 1
   7              		.eabi_attribute 25, 1
   8              		.eabi_attribute 26, 1
   9              		.eabi_attribute 30, 6
  10              		.eabi_attribute 34, 0
  11              		.eabi_attribute 18, 4
  12              		.code	16
  13              		.file	"PRS_1_PM.c"
  14              		.text
  15              	.Ltext0:
  16              		.cfi_sections	.debug_frame
  17              		.data
  18              		.align	2
  19              		.type	PRS_1_backup, %object
  20              		.size	PRS_1_backup, 5
  21              	PRS_1_backup:
  22 0000 00       		.byte	0
  23 0001 00       		.byte	0
  24 0002 FF       		.byte	-1
  25 0003 FF       		.byte	-1
  26 0004 B8       		.byte	-72
  27 0005 000000   		.section	.text.PRS_1_SaveConfig,"ax",%progbits
  28              		.align	2
  29              		.global	PRS_1_SaveConfig
  30              		.code	16
  31              		.thumb_func
  32              		.type	PRS_1_SaveConfig, %function
  33              	PRS_1_SaveConfig:
  34              	.LFB2:
  35              		.file 1 ".\\Generated_Source\\PSoC4\\PRS_1_PM.c"
   1:.\Generated_Source\PSoC4/PRS_1_PM.c **** /*******************************************************************************
   2:.\Generated_Source\PSoC4/PRS_1_PM.c **** * File Name: PRS_1_PM.c
   3:.\Generated_Source\PSoC4/PRS_1_PM.c **** * Version 2.20
   4:.\Generated_Source\PSoC4/PRS_1_PM.c **** *
   5:.\Generated_Source\PSoC4/PRS_1_PM.c **** * Description:
   6:.\Generated_Source\PSoC4/PRS_1_PM.c **** *  This file provides Sleep/WakeUp APIs functionality of the PrISM component
   7:.\Generated_Source\PSoC4/PRS_1_PM.c **** *
   8:.\Generated_Source\PSoC4/PRS_1_PM.c **** * Note:
   9:.\Generated_Source\PSoC4/PRS_1_PM.c **** *
  10:.\Generated_Source\PSoC4/PRS_1_PM.c **** ********************************************************************************
  11:.\Generated_Source\PSoC4/PRS_1_PM.c **** * Copyright 2008-2012, Cypress Semiconductor Corporation.  All rights reserved.
  12:.\Generated_Source\PSoC4/PRS_1_PM.c **** * You may use this file only in accordance with the license, terms, conditions, 
  13:.\Generated_Source\PSoC4/PRS_1_PM.c **** * disclaimers, and limitations in the end user license agreement accompanying 
  14:.\Generated_Source\PSoC4/PRS_1_PM.c **** * the software package with which this file was provided.
  15:.\Generated_Source\PSoC4/PRS_1_PM.c **** *******************************************************************************/
  16:.\Generated_Source\PSoC4/PRS_1_PM.c **** 
  17:.\Generated_Source\PSoC4/PRS_1_PM.c **** #include "PRS_1.h"
  18:.\Generated_Source\PSoC4/PRS_1_PM.c **** 
  19:.\Generated_Source\PSoC4/PRS_1_PM.c **** 
  20:.\Generated_Source\PSoC4/PRS_1_PM.c **** /***************************************
  21:.\Generated_Source\PSoC4/PRS_1_PM.c **** * Local data allocation
  22:.\Generated_Source\PSoC4/PRS_1_PM.c **** ***************************************/
ARM GAS  C:\Users\jsing\AppData\Local\Temp\cc2jtBf9.s 			page 2


  23:.\Generated_Source\PSoC4/PRS_1_PM.c **** static PRS_1_BACKUP_STRUCT  PRS_1_backup = 
  24:.\Generated_Source\PSoC4/PRS_1_PM.c **** {
  25:.\Generated_Source\PSoC4/PRS_1_PM.c ****     /* enableState */
  26:.\Generated_Source\PSoC4/PRS_1_PM.c ****     0u,
  27:.\Generated_Source\PSoC4/PRS_1_PM.c ****     /* cr */
  28:.\Generated_Source\PSoC4/PRS_1_PM.c ****     #if(!PRS_1_PULSE_TYPE_HARDCODED)
  29:.\Generated_Source\PSoC4/PRS_1_PM.c ****        (((PRS_1_GREATERTHAN_OR_EQUAL == PRS_1_COMPARE0) ? \
  30:.\Generated_Source\PSoC4/PRS_1_PM.c ****                                                 PRS_1_CTRL_COMPARE_TYPE0_GREATER_THAN_OR_EQUAL : 0u
  31:.\Generated_Source\PSoC4/PRS_1_PM.c ****         ((PRS_1_GREATERTHAN_OR_EQUAL == PRS_1_COMPARE1) ? \
  32:.\Generated_Source\PSoC4/PRS_1_PM.c ****                                                 PRS_1_CTRL_COMPARE_TYPE1_GREATER_THAN_OR_EQUAL : 0u
  33:.\Generated_Source\PSoC4/PRS_1_PM.c ****     #endif /* End PRS_1_PULSE_TYPE_HARDCODED */
  34:.\Generated_Source\PSoC4/PRS_1_PM.c ****     /* seed */    
  35:.\Generated_Source\PSoC4/PRS_1_PM.c ****     PRS_1_SEED,
  36:.\Generated_Source\PSoC4/PRS_1_PM.c ****     /* seed_copy */    
  37:.\Generated_Source\PSoC4/PRS_1_PM.c ****     PRS_1_SEED,
  38:.\Generated_Source\PSoC4/PRS_1_PM.c ****     /* polynom */
  39:.\Generated_Source\PSoC4/PRS_1_PM.c ****     PRS_1_POLYNOM,
  40:.\Generated_Source\PSoC4/PRS_1_PM.c ****     #if(CY_UDB_V0)
  41:.\Generated_Source\PSoC4/PRS_1_PM.c ****         /* density0 */
  42:.\Generated_Source\PSoC4/PRS_1_PM.c ****         PRS_1_DENSITY0,
  43:.\Generated_Source\PSoC4/PRS_1_PM.c ****         /* density1 */
  44:.\Generated_Source\PSoC4/PRS_1_PM.c ****         PRS_1_DENSITY1,
  45:.\Generated_Source\PSoC4/PRS_1_PM.c ****     #endif /*End CY_UDB_V0*/
  46:.\Generated_Source\PSoC4/PRS_1_PM.c **** };
  47:.\Generated_Source\PSoC4/PRS_1_PM.c **** 
  48:.\Generated_Source\PSoC4/PRS_1_PM.c **** 
  49:.\Generated_Source\PSoC4/PRS_1_PM.c **** /*******************************************************************************
  50:.\Generated_Source\PSoC4/PRS_1_PM.c **** * Function Name: PRS_1_SaveConfig
  51:.\Generated_Source\PSoC4/PRS_1_PM.c **** ********************************************************************************
  52:.\Generated_Source\PSoC4/PRS_1_PM.c **** *
  53:.\Generated_Source\PSoC4/PRS_1_PM.c **** * Summary:
  54:.\Generated_Source\PSoC4/PRS_1_PM.c **** *  Saves the current user configuration.
  55:.\Generated_Source\PSoC4/PRS_1_PM.c **** *  
  56:.\Generated_Source\PSoC4/PRS_1_PM.c **** * Parameters:  
  57:.\Generated_Source\PSoC4/PRS_1_PM.c **** *  None.
  58:.\Generated_Source\PSoC4/PRS_1_PM.c **** *
  59:.\Generated_Source\PSoC4/PRS_1_PM.c **** * Return: 
  60:.\Generated_Source\PSoC4/PRS_1_PM.c **** *  None.
  61:.\Generated_Source\PSoC4/PRS_1_PM.c **** *
  62:.\Generated_Source\PSoC4/PRS_1_PM.c **** * Global Variables:
  63:.\Generated_Source\PSoC4/PRS_1_PM.c **** *  PRS_1_backup - modified when non-retention registers are saved.
  64:.\Generated_Source\PSoC4/PRS_1_PM.c **** *
  65:.\Generated_Source\PSoC4/PRS_1_PM.c **** * Reentrant:
  66:.\Generated_Source\PSoC4/PRS_1_PM.c **** *  No.
  67:.\Generated_Source\PSoC4/PRS_1_PM.c **** *
  68:.\Generated_Source\PSoC4/PRS_1_PM.c **** *******************************************************************************/
  69:.\Generated_Source\PSoC4/PRS_1_PM.c **** void PRS_1_SaveConfig(void) 
  70:.\Generated_Source\PSoC4/PRS_1_PM.c **** {
  36              		.loc 1 70 0
  37              		.cfi_startproc
  38 0000 80B5     		push	{r7, lr}
  39              		.cfi_def_cfa_offset 8
  40              		.cfi_offset 7, -8
  41              		.cfi_offset 14, -4
  42 0002 00AF     		add	r7, sp, #0
  43              		.cfi_def_cfa_register 7
  71:.\Generated_Source\PSoC4/PRS_1_PM.c ****     #if (CY_UDB_V0)
ARM GAS  C:\Users\jsing\AppData\Local\Temp\cc2jtBf9.s 			page 3


  72:.\Generated_Source\PSoC4/PRS_1_PM.c ****         #if(!PRS_1_PULSE_TYPE_HARDCODED)
  73:.\Generated_Source\PSoC4/PRS_1_PM.c ****             PRS_1_backup.cr = PRS_1_CONTROL_REG;
  74:.\Generated_Source\PSoC4/PRS_1_PM.c ****         #endif /* End PRS_1_PULSE_TYPE_HARDCODED */
  75:.\Generated_Source\PSoC4/PRS_1_PM.c ****         PRS_1_backup.seed = PRS_1_ReadSeed();
  76:.\Generated_Source\PSoC4/PRS_1_PM.c ****         PRS_1_backup.seed_copy = CY_GET_REG8(PRS_1_SEED_COPY_PTR);
  77:.\Generated_Source\PSoC4/PRS_1_PM.c ****         PRS_1_backup.polynom = PRS_1_ReadPolynomial();
  78:.\Generated_Source\PSoC4/PRS_1_PM.c ****         PRS_1_backup.density0 = PRS_1_ReadPulse0();
  79:.\Generated_Source\PSoC4/PRS_1_PM.c ****         PRS_1_backup.density1 = PRS_1_ReadPulse1();
  80:.\Generated_Source\PSoC4/PRS_1_PM.c ****     #else /* CY_UDB_V1 */
  81:.\Generated_Source\PSoC4/PRS_1_PM.c ****         #if(!PRS_1_PULSE_TYPE_HARDCODED)
  82:.\Generated_Source\PSoC4/PRS_1_PM.c ****             PRS_1_backup.cr = PRS_1_CONTROL_REG;
  44              		.loc 1 82 0
  45 0004 0B4B     		ldr	r3, .L2
  46 0006 1B78     		ldrb	r3, [r3]
  47 0008 DAB2     		uxtb	r2, r3
  48 000a 0B4B     		ldr	r3, .L2+4
  49 000c 5A70     		strb	r2, [r3, #1]
  83:.\Generated_Source\PSoC4/PRS_1_PM.c ****         #endif /* End PRS_1_PULSE_TYPE_HARDCODED */
  84:.\Generated_Source\PSoC4/PRS_1_PM.c ****         PRS_1_backup.seed = PRS_1_ReadSeed();
  50              		.loc 1 84 0
  51 000e FFF7FEFF 		bl	PRS_1_ReadSeed
  52 0012 031C     		mov	r3, r0
  53 0014 1A1C     		mov	r2, r3
  54 0016 084B     		ldr	r3, .L2+4
  55 0018 9A70     		strb	r2, [r3, #2]
  85:.\Generated_Source\PSoC4/PRS_1_PM.c ****         PRS_1_backup.seed_copy = CY_GET_REG8(PRS_1_SEED_COPY_PTR);
  56              		.loc 1 85 0
  57 001a 084B     		ldr	r3, .L2+8
  58 001c 1B78     		ldrb	r3, [r3]
  59 001e DAB2     		uxtb	r2, r3
  60 0020 054B     		ldr	r3, .L2+4
  61 0022 DA70     		strb	r2, [r3, #3]
  86:.\Generated_Source\PSoC4/PRS_1_PM.c ****         PRS_1_backup.polynom = PRS_1_ReadPolynomial();
  62              		.loc 1 86 0
  63 0024 FFF7FEFF 		bl	PRS_1_ReadPolynomial
  64 0028 031C     		mov	r3, r0
  65 002a 1A1C     		mov	r2, r3
  66 002c 024B     		ldr	r3, .L2+4
  67 002e 1A71     		strb	r2, [r3, #4]
  87:.\Generated_Source\PSoC4/PRS_1_PM.c ****     #endif  /* CY_UDB_V0 */
  88:.\Generated_Source\PSoC4/PRS_1_PM.c **** }
  68              		.loc 1 88 0
  69 0030 BD46     		mov	sp, r7
  70              		@ sp needed
  71 0032 80BD     		pop	{r7, pc}
  72              	.L3:
  73              		.align	2
  74              	.L2:
  75 0034 73000F40 		.word	1074724979
  76 0038 00000000 		.word	PRS_1_backup
  77 003c 43000F40 		.word	1074724931
  78              		.cfi_endproc
  79              	.LFE2:
  80              		.size	PRS_1_SaveConfig, .-PRS_1_SaveConfig
  81              		.section	.text.PRS_1_RestoreConfig,"ax",%progbits
  82              		.align	2
  83              		.global	PRS_1_RestoreConfig
ARM GAS  C:\Users\jsing\AppData\Local\Temp\cc2jtBf9.s 			page 4


  84              		.code	16
  85              		.thumb_func
  86              		.type	PRS_1_RestoreConfig, %function
  87              	PRS_1_RestoreConfig:
  88              	.LFB3:
  89:.\Generated_Source\PSoC4/PRS_1_PM.c **** 
  90:.\Generated_Source\PSoC4/PRS_1_PM.c **** 
  91:.\Generated_Source\PSoC4/PRS_1_PM.c **** /*******************************************************************************
  92:.\Generated_Source\PSoC4/PRS_1_PM.c **** * Function Name: PRS_1_RestoreConfig
  93:.\Generated_Source\PSoC4/PRS_1_PM.c **** ********************************************************************************
  94:.\Generated_Source\PSoC4/PRS_1_PM.c **** *
  95:.\Generated_Source\PSoC4/PRS_1_PM.c **** * Summary:
  96:.\Generated_Source\PSoC4/PRS_1_PM.c **** *  Restores the current user configuration.
  97:.\Generated_Source\PSoC4/PRS_1_PM.c **** *
  98:.\Generated_Source\PSoC4/PRS_1_PM.c **** * Parameters:  
  99:.\Generated_Source\PSoC4/PRS_1_PM.c **** *  None.
 100:.\Generated_Source\PSoC4/PRS_1_PM.c **** *
 101:.\Generated_Source\PSoC4/PRS_1_PM.c **** * Return: 
 102:.\Generated_Source\PSoC4/PRS_1_PM.c **** *  None.
 103:.\Generated_Source\PSoC4/PRS_1_PM.c **** *
 104:.\Generated_Source\PSoC4/PRS_1_PM.c **** * Global Variables:
 105:.\Generated_Source\PSoC4/PRS_1_PM.c **** *  PRS_1_backup - used when non-retention registers are restored.
 106:.\Generated_Source\PSoC4/PRS_1_PM.c **** *
 107:.\Generated_Source\PSoC4/PRS_1_PM.c **** *******************************************************************************/
 108:.\Generated_Source\PSoC4/PRS_1_PM.c **** void PRS_1_RestoreConfig(void) 
 109:.\Generated_Source\PSoC4/PRS_1_PM.c **** {
  89              		.loc 1 109 0
  90              		.cfi_startproc
  91 0000 80B5     		push	{r7, lr}
  92              		.cfi_def_cfa_offset 8
  93              		.cfi_offset 7, -8
  94              		.cfi_offset 14, -4
  95 0002 00AF     		add	r7, sp, #0
  96              		.cfi_def_cfa_register 7
 110:.\Generated_Source\PSoC4/PRS_1_PM.c ****     #if (CY_UDB_V0)
 111:.\Generated_Source\PSoC4/PRS_1_PM.c ****     
 112:.\Generated_Source\PSoC4/PRS_1_PM.c ****         uint8 enableInterrupts;
 113:.\Generated_Source\PSoC4/PRS_1_PM.c ****         
 114:.\Generated_Source\PSoC4/PRS_1_PM.c ****         #if(!PRS_1_PULSE_TYPE_HARDCODED)
 115:.\Generated_Source\PSoC4/PRS_1_PM.c ****             PRS_1_CONTROL_REG = PRS_1_backup.cr;
 116:.\Generated_Source\PSoC4/PRS_1_PM.c ****         #endif /* End PRS_1_PULSE_TYPE_HARDCODED */
 117:.\Generated_Source\PSoC4/PRS_1_PM.c **** 
 118:.\Generated_Source\PSoC4/PRS_1_PM.c ****         CY_SET_REG8(PRS_1_SEED_COPY_PTR, PRS_1_backup.seed_copy);
 119:.\Generated_Source\PSoC4/PRS_1_PM.c ****         CY_SET_REG8(PRS_1_SEED_PTR, PRS_1_backup.seed);
 120:.\Generated_Source\PSoC4/PRS_1_PM.c ****         PRS_1_WritePolynomial(PRS_1_backup.polynom);
 121:.\Generated_Source\PSoC4/PRS_1_PM.c ****         PRS_1_WritePulse0(PRS_1_backup.density0);
 122:.\Generated_Source\PSoC4/PRS_1_PM.c ****         PRS_1_WritePulse1(PRS_1_backup.density1);
 123:.\Generated_Source\PSoC4/PRS_1_PM.c ****         
 124:.\Generated_Source\PSoC4/PRS_1_PM.c ****         enableInterrupts = CyEnterCriticalSection();
 125:.\Generated_Source\PSoC4/PRS_1_PM.c ****         /* Set FIFO0_CLR bit to use FIFO0 as a simple one-byte buffer*/
 126:.\Generated_Source\PSoC4/PRS_1_PM.c ****         CY_SET_REG8(PRS_1_AUX_CONTROL_PTR, 
 127:.\Generated_Source\PSoC4/PRS_1_PM.c ****                         CY_GET_REG8(PRS_1_AUX_CONTROL_PTR) | PRS_1_FIFO0_CLR);
 128:.\Generated_Source\PSoC4/PRS_1_PM.c ****         CyExitCriticalSection(enableInterrupts);
 129:.\Generated_Source\PSoC4/PRS_1_PM.c **** 
 130:.\Generated_Source\PSoC4/PRS_1_PM.c ****     #else   /* CY_UDB_V1 */
 131:.\Generated_Source\PSoC4/PRS_1_PM.c **** 
 132:.\Generated_Source\PSoC4/PRS_1_PM.c ****         #if(!PRS_1_PULSE_TYPE_HARDCODED)
ARM GAS  C:\Users\jsing\AppData\Local\Temp\cc2jtBf9.s 			page 5


 133:.\Generated_Source\PSoC4/PRS_1_PM.c ****             PRS_1_CONTROL_REG = PRS_1_backup.cr;
  97              		.loc 1 133 0
  98 0004 094B     		ldr	r3, .L5
  99 0006 0A4A     		ldr	r2, .L5+4
 100 0008 5278     		ldrb	r2, [r2, #1]
 101 000a 1A70     		strb	r2, [r3]
 134:.\Generated_Source\PSoC4/PRS_1_PM.c ****         #endif /* End PRS_1_PULSE_TYPE_HARDCODED */
 135:.\Generated_Source\PSoC4/PRS_1_PM.c **** 
 136:.\Generated_Source\PSoC4/PRS_1_PM.c ****         CY_SET_REG8(PRS_1_SEED_COPY_PTR, PRS_1_backup.seed_copy);
 102              		.loc 1 136 0
 103 000c 094B     		ldr	r3, .L5+8
 104 000e 084A     		ldr	r2, .L5+4
 105 0010 D278     		ldrb	r2, [r2, #3]
 106 0012 1A70     		strb	r2, [r3]
 137:.\Generated_Source\PSoC4/PRS_1_PM.c ****         CY_SET_REG8(PRS_1_SEED_PTR, PRS_1_backup.seed);
 107              		.loc 1 137 0
 108 0014 084B     		ldr	r3, .L5+12
 109 0016 064A     		ldr	r2, .L5+4
 110 0018 9278     		ldrb	r2, [r2, #2]
 111 001a 1A70     		strb	r2, [r3]
 138:.\Generated_Source\PSoC4/PRS_1_PM.c ****         PRS_1_WritePolynomial(PRS_1_backup.polynom);
 112              		.loc 1 138 0
 113 001c 044B     		ldr	r3, .L5+4
 114 001e 1B79     		ldrb	r3, [r3, #4]
 115 0020 181C     		mov	r0, r3
 116 0022 FFF7FEFF 		bl	PRS_1_WritePolynomial
 139:.\Generated_Source\PSoC4/PRS_1_PM.c ****     
 140:.\Generated_Source\PSoC4/PRS_1_PM.c ****     #endif  /* End CY_UDB_V0 */
 141:.\Generated_Source\PSoC4/PRS_1_PM.c **** }
 117              		.loc 1 141 0
 118 0026 BD46     		mov	sp, r7
 119              		@ sp needed
 120 0028 80BD     		pop	{r7, pc}
 121              	.L6:
 122 002a C046     		.align	2
 123              	.L5:
 124 002c 73000F40 		.word	1074724979
 125 0030 00000000 		.word	PRS_1_backup
 126 0034 43000F40 		.word	1074724931
 127 0038 03000F40 		.word	1074724867
 128              		.cfi_endproc
 129              	.LFE3:
 130              		.size	PRS_1_RestoreConfig, .-PRS_1_RestoreConfig
 131              		.section	.text.PRS_1_Sleep,"ax",%progbits
 132              		.align	2
 133              		.global	PRS_1_Sleep
 134              		.code	16
 135              		.thumb_func
 136              		.type	PRS_1_Sleep, %function
 137              	PRS_1_Sleep:
 138              	.LFB4:
 142:.\Generated_Source\PSoC4/PRS_1_PM.c **** 
 143:.\Generated_Source\PSoC4/PRS_1_PM.c **** 
 144:.\Generated_Source\PSoC4/PRS_1_PM.c **** /*******************************************************************************
 145:.\Generated_Source\PSoC4/PRS_1_PM.c **** * Function Name: PRS_1_Sleep
 146:.\Generated_Source\PSoC4/PRS_1_PM.c **** ********************************************************************************
 147:.\Generated_Source\PSoC4/PRS_1_PM.c **** *
ARM GAS  C:\Users\jsing\AppData\Local\Temp\cc2jtBf9.s 			page 6


 148:.\Generated_Source\PSoC4/PRS_1_PM.c **** * Summary:
 149:.\Generated_Source\PSoC4/PRS_1_PM.c **** *  Stops and saves the user configuration
 150:.\Generated_Source\PSoC4/PRS_1_PM.c **** *  
 151:.\Generated_Source\PSoC4/PRS_1_PM.c **** * Parameters:  
 152:.\Generated_Source\PSoC4/PRS_1_PM.c **** *  None.
 153:.\Generated_Source\PSoC4/PRS_1_PM.c **** *
 154:.\Generated_Source\PSoC4/PRS_1_PM.c **** * Return: 
 155:.\Generated_Source\PSoC4/PRS_1_PM.c **** *  None.
 156:.\Generated_Source\PSoC4/PRS_1_PM.c **** *
 157:.\Generated_Source\PSoC4/PRS_1_PM.c **** * Global Variables:
 158:.\Generated_Source\PSoC4/PRS_1_PM.c **** *  PRS_1_backup - modified when non-retention registers are saved.
 159:.\Generated_Source\PSoC4/PRS_1_PM.c **** *
 160:.\Generated_Source\PSoC4/PRS_1_PM.c **** * Reentrant:
 161:.\Generated_Source\PSoC4/PRS_1_PM.c **** *  No.
 162:.\Generated_Source\PSoC4/PRS_1_PM.c **** *
 163:.\Generated_Source\PSoC4/PRS_1_PM.c **** *******************************************************************************/
 164:.\Generated_Source\PSoC4/PRS_1_PM.c **** void PRS_1_Sleep(void) 
 165:.\Generated_Source\PSoC4/PRS_1_PM.c **** {
 139              		.loc 1 165 0
 140              		.cfi_startproc
 141 0000 80B5     		push	{r7, lr}
 142              		.cfi_def_cfa_offset 8
 143              		.cfi_offset 7, -8
 144              		.cfi_offset 14, -4
 145 0002 00AF     		add	r7, sp, #0
 146              		.cfi_def_cfa_register 7
 166:.\Generated_Source\PSoC4/PRS_1_PM.c ****     #if(!PRS_1_PULSE_TYPE_HARDCODED)
 167:.\Generated_Source\PSoC4/PRS_1_PM.c ****         if((PRS_1_CONTROL_REG & PRS_1_CTRL_ENABLE) != 0u) 
 147              		.loc 1 167 0
 148 0004 094B     		ldr	r3, .L10
 149 0006 1B78     		ldrb	r3, [r3]
 150 0008 DBB2     		uxtb	r3, r3
 151 000a 1A1C     		mov	r2, r3
 152 000c 0123     		mov	r3, #1
 153 000e 1340     		and	r3, r2
 154 0010 03D0     		beq	.L8
 168:.\Generated_Source\PSoC4/PRS_1_PM.c ****         {
 169:.\Generated_Source\PSoC4/PRS_1_PM.c ****             PRS_1_backup.enableState = 1u;
 155              		.loc 1 169 0
 156 0012 074B     		ldr	r3, .L10+4
 157 0014 0122     		mov	r2, #1
 158 0016 1A70     		strb	r2, [r3]
 159 0018 02E0     		b	.L9
 160              	.L8:
 170:.\Generated_Source\PSoC4/PRS_1_PM.c ****         }
 171:.\Generated_Source\PSoC4/PRS_1_PM.c ****         else
 172:.\Generated_Source\PSoC4/PRS_1_PM.c ****         {
 173:.\Generated_Source\PSoC4/PRS_1_PM.c ****             PRS_1_backup.enableState = 0u;
 161              		.loc 1 173 0
 162 001a 054B     		ldr	r3, .L10+4
 163 001c 0022     		mov	r2, #0
 164 001e 1A70     		strb	r2, [r3]
 165              	.L9:
 174:.\Generated_Source\PSoC4/PRS_1_PM.c ****         }
 175:.\Generated_Source\PSoC4/PRS_1_PM.c ****     #endif /* End PRS_1_PULSE_TYPE_HARDCODED */
 176:.\Generated_Source\PSoC4/PRS_1_PM.c ****     PRS_1_Stop();
 166              		.loc 1 176 0
ARM GAS  C:\Users\jsing\AppData\Local\Temp\cc2jtBf9.s 			page 7


 167 0020 FFF7FEFF 		bl	PRS_1_Stop
 177:.\Generated_Source\PSoC4/PRS_1_PM.c ****     PRS_1_SaveConfig();
 168              		.loc 1 177 0
 169 0024 FFF7FEFF 		bl	PRS_1_SaveConfig
 178:.\Generated_Source\PSoC4/PRS_1_PM.c **** }
 170              		.loc 1 178 0
 171 0028 BD46     		mov	sp, r7
 172              		@ sp needed
 173 002a 80BD     		pop	{r7, pc}
 174              	.L11:
 175              		.align	2
 176              	.L10:
 177 002c 73000F40 		.word	1074724979
 178 0030 00000000 		.word	PRS_1_backup
 179              		.cfi_endproc
 180              	.LFE4:
 181              		.size	PRS_1_Sleep, .-PRS_1_Sleep
 182              		.section	.text.PRS_1_Wakeup,"ax",%progbits
 183              		.align	2
 184              		.global	PRS_1_Wakeup
 185              		.code	16
 186              		.thumb_func
 187              		.type	PRS_1_Wakeup, %function
 188              	PRS_1_Wakeup:
 189              	.LFB5:
 179:.\Generated_Source\PSoC4/PRS_1_PM.c **** 
 180:.\Generated_Source\PSoC4/PRS_1_PM.c **** 
 181:.\Generated_Source\PSoC4/PRS_1_PM.c **** /*******************************************************************************
 182:.\Generated_Source\PSoC4/PRS_1_PM.c **** * Function Name: PRS_1_Wakeup
 183:.\Generated_Source\PSoC4/PRS_1_PM.c **** ********************************************************************************
 184:.\Generated_Source\PSoC4/PRS_1_PM.c **** *
 185:.\Generated_Source\PSoC4/PRS_1_PM.c **** * Summary:
 186:.\Generated_Source\PSoC4/PRS_1_PM.c **** *  Restores and enables the user configuration
 187:.\Generated_Source\PSoC4/PRS_1_PM.c **** *  
 188:.\Generated_Source\PSoC4/PRS_1_PM.c **** * Parameters:  
 189:.\Generated_Source\PSoC4/PRS_1_PM.c **** *  None.
 190:.\Generated_Source\PSoC4/PRS_1_PM.c **** *
 191:.\Generated_Source\PSoC4/PRS_1_PM.c **** * Return: 
 192:.\Generated_Source\PSoC4/PRS_1_PM.c **** *  None.
 193:.\Generated_Source\PSoC4/PRS_1_PM.c **** *
 194:.\Generated_Source\PSoC4/PRS_1_PM.c **** * Global Variables:
 195:.\Generated_Source\PSoC4/PRS_1_PM.c **** *  PRS_1_backup - used when non-retention registers are restored.
 196:.\Generated_Source\PSoC4/PRS_1_PM.c **** *
 197:.\Generated_Source\PSoC4/PRS_1_PM.c **** *******************************************************************************/
 198:.\Generated_Source\PSoC4/PRS_1_PM.c **** void PRS_1_Wakeup(void) 
 199:.\Generated_Source\PSoC4/PRS_1_PM.c **** {
 190              		.loc 1 199 0
 191              		.cfi_startproc
 192 0000 80B5     		push	{r7, lr}
 193              		.cfi_def_cfa_offset 8
 194              		.cfi_offset 7, -8
 195              		.cfi_offset 14, -4
 196 0002 00AF     		add	r7, sp, #0
 197              		.cfi_def_cfa_register 7
 200:.\Generated_Source\PSoC4/PRS_1_PM.c ****     PRS_1_RestoreConfig();
 198              		.loc 1 200 0
 199 0004 FFF7FEFF 		bl	PRS_1_RestoreConfig
ARM GAS  C:\Users\jsing\AppData\Local\Temp\cc2jtBf9.s 			page 8


 201:.\Generated_Source\PSoC4/PRS_1_PM.c ****     if(PRS_1_backup.enableState != 0u)
 200              		.loc 1 201 0
 201 0008 034B     		ldr	r3, .L14
 202 000a 1B78     		ldrb	r3, [r3]
 203 000c 002B     		cmp	r3, #0
 204 000e 01D0     		beq	.L12
 202:.\Generated_Source\PSoC4/PRS_1_PM.c ****     {
 203:.\Generated_Source\PSoC4/PRS_1_PM.c ****         PRS_1_Enable();
 205              		.loc 1 203 0
 206 0010 FFF7FEFF 		bl	PRS_1_Enable
 207              	.L12:
 204:.\Generated_Source\PSoC4/PRS_1_PM.c ****     } 
 205:.\Generated_Source\PSoC4/PRS_1_PM.c **** }
 208              		.loc 1 205 0
 209 0014 BD46     		mov	sp, r7
 210              		@ sp needed
 211 0016 80BD     		pop	{r7, pc}
 212              	.L15:
 213              		.align	2
 214              	.L14:
 215 0018 00000000 		.word	PRS_1_backup
 216              		.cfi_endproc
 217              	.LFE5:
 218              		.size	PRS_1_Wakeup, .-PRS_1_Wakeup
 219              		.text
 220              	.Letext0:
 221              		.file 2 ".\\Generated_Source\\PSoC4\\cytypes.h"
 222              		.file 3 ".\\Generated_Source\\PSoC4\\PRS_1.h"