ARM GAS  C:\Users\jsing\AppData\Local\Temp\ccvcCYY7.s 			page 1


   1              		.cpu cortex-m0
   2              		.fpu softvfp
   3              		.eabi_attribute 20, 1
   4              		.eabi_attribute 21, 1
   5              		.eabi_attribute 23, 3
   6              		.eabi_attribute 24, 1
   7              		.eabi_attribute 25, 1
   8              		.eabi_attribute 26, 1
   9              		.eabi_attribute 30, 6
  10              		.eabi_attribute 34, 0
  11              		.eabi_attribute 18, 4
  12              		.code	16
  13              		.file	"app_Ble.c"
  14              		.text
  15              	.Ltext0:
  16              		.cfi_sections	.debug_frame
  17              		.comm	scan_status,1,1
  18              		.comm	x,1,1
  19              		.comm	y,1,1
  20              		.comm	z,1,1
  21              		.comm	ADC_x_current,2,2
  22              		.comm	ADC_y_current,2,2
  23              		.comm	ADC_z_current,2,2
  24              		.comm	ADC_x_previous,2,2
  25              		.comm	ADC_y_previous,2,2
  26              		.comm	ADC_z_previous,2,2
  27              		.comm	BLE_Command,1,1
  28              		.comm	state,1,1
  29              		.comm	connStatus,1,1
  30              		.comm	lpMode,1,1
  31              		.comm	blessState,1,1
  32              		.comm	interruptStatus,1,1
  33              		.global	mtuSize
  34              		.data
  35              		.align	1
  36              		.type	mtuSize, %object
  37              		.size	mtuSize, 2
  38              	mtuSize:
  39 0000 1700     		.short	23
  40              		.section	.text.HandleBleProcessing,"ax",%progbits
  41              		.align	2
  42              		.global	HandleBleProcessing
  43              		.code	16
  44              		.thumb_func
  45              		.type	HandleBleProcessing, %function
  46              	HandleBleProcessing:
  47              	.LFB35:
  48              		.file 1 ".\\app_Ble.c"
   1:.\app_Ble.c   **** /*******************************************************************************
   2:.\app_Ble.c   **** * File Name: app_Ble.c
   3:.\app_Ble.c   **** *
   4:.\app_Ble.c   **** * Description:
   5:.\app_Ble.c   **** *  Common BLE application code for client devices.
   6:.\app_Ble.c   **** *
   7:.\app_Ble.c   **** *******************************************************************************
   8:.\app_Ble.c   **** * Copyright 2015, Cypress Semiconductor Corporation.  All rights reserved.
   9:.\app_Ble.c   **** * You may use this file only in accordance with the license, terms, conditions,
ARM GAS  C:\Users\jsing\AppData\Local\Temp\ccvcCYY7.s 			page 2


  10:.\app_Ble.c   **** * disclaimers, and limitations in the end user license agreement accompanying
  11:.\app_Ble.c   **** * the software package with which this file was provided.
  12:.\app_Ble.c   **** *******************************************************************************/
  13:.\app_Ble.c   **** 
  14:.\app_Ble.c   **** #include "app_ble.h"
  15:.\app_Ble.c   **** 
  16:.\app_Ble.c   **** /* MTU size to be used by Client and Server after MTU exchange */
  17:.\app_Ble.c   **** uint16 mtuSize      = CYBLE_GATT_MTU;   
  18:.\app_Ble.c   **** 
  19:.\app_Ble.c   **** extern uint8 applicationPower;
  20:.\app_Ble.c   **** 
  21:.\app_Ble.c   **** /*******************************************************************************
  22:.\app_Ble.c   **** * Function Name: HandleBleProcessing
  23:.\app_Ble.c   **** ********************************************************************************
  24:.\app_Ble.c   **** *
  25:.\app_Ble.c   **** * Summary:
  26:.\app_Ble.c   **** *   Handles the BLE state machine for intiating different procedures
  27:.\app_Ble.c   **** *   during different states of BLESS.
  28:.\app_Ble.c   **** *
  29:.\app_Ble.c   **** * Parameters:
  30:.\app_Ble.c   **** *   None.
  31:.\app_Ble.c   **** *
  32:.\app_Ble.c   **** * Return:
  33:.\app_Ble.c   **** *   None.
  34:.\app_Ble.c   **** *
  35:.\app_Ble.c   **** *******************************************************************************/
  36:.\app_Ble.c   **** void HandleBleProcessing(void)
  37:.\app_Ble.c   **** {    
  49              		.loc 1 37 0
  50              		.cfi_startproc
  51 0000 80B5     		push	{r7, lr}
  52              		.cfi_def_cfa_offset 8
  53              		.cfi_offset 7, -8
  54              		.cfi_offset 14, -4
  55 0002 00AF     		add	r7, sp, #0
  56              		.cfi_def_cfa_register 7
  38:.\app_Ble.c   ****     switch (cyBle_state)
  57              		.loc 1 38 0
  58 0004 114B     		ldr	r3, .L9
  59 0006 1B78     		ldrb	r3, [r3]
  60 0008 032B     		cmp	r3, #3
  61 000a 1BD0     		beq	.L8
  62 000c 042B     		cmp	r3, #4
  63 000e 15D0     		beq	.L4
  64 0010 022B     		cmp	r3, #2
  65 0012 00D0     		beq	.L5
  39:.\app_Ble.c   ****     {
  40:.\app_Ble.c   ****         case CYBLE_STATE_ADVERTISING:
  41:.\app_Ble.c   ****             break;
  42:.\app_Ble.c   ****         
  43:.\app_Ble.c   ****         case CYBLE_STATE_CONNECTED:
  44:.\app_Ble.c   **** 		
  45:.\app_Ble.c   **** 		    connStatus= CONNECTED;
  46:.\app_Ble.c   ****             Sensor_ADC_Start();
  47:.\app_Ble.c   **** 			Sensor_ADC_StartConvert();
  48:.\app_Ble.c   ****             if(CyBle_GattGetBusStatus() != CYBLE_STACK_STATE_BUSY)
  49:.\app_Ble.c   ****             {
ARM GAS  C:\Users\jsing\AppData\Local\Temp\ccvcCYY7.s 			page 3


  50:.\app_Ble.c   ****                 SendCommand();/*This will send the command over BLE*/
  51:.\app_Ble.c   **** 				applicationPower = DEEPSLEEP;/*Once command has been sent the state has been set to DEEPSLEEP*/
  52:.\app_Ble.c   **** 			
  53:.\app_Ble.c   ****             }
  54:.\app_Ble.c   **** 			break;
  55:.\app_Ble.c   ****                 
  56:.\app_Ble.c   ****         case CYBLE_STATE_DISCONNECTED:
  57:.\app_Ble.c   ****         	CyBle_GappStartAdvertisement(CYBLE_ADVERTISING_FAST);
  58:.\app_Ble.c   ****         	break;
  59:.\app_Ble.c   ****         default:
  60:.\app_Ble.c   ****             break;       
  66              		.loc 1 60 0
  67 0014 17E0     		b	.L1
  68              	.L5:
  45:.\app_Ble.c   **** 		    connStatus= CONNECTED;
  69              		.loc 1 45 0
  70 0016 0E4B     		ldr	r3, .L9+4
  71 0018 0122     		mov	r2, #1
  72 001a 1A70     		strb	r2, [r3]
  46:.\app_Ble.c   ****             Sensor_ADC_Start();
  73              		.loc 1 46 0
  74 001c FFF7FEFF 		bl	Sensor_ADC_Start
  47:.\app_Ble.c   **** 			Sensor_ADC_StartConvert();
  75              		.loc 1 47 0
  76 0020 FFF7FEFF 		bl	Sensor_ADC_StartConvert
  48:.\app_Ble.c   ****             if(CyBle_GattGetBusStatus() != CYBLE_STACK_STATE_BUSY)
  77              		.loc 1 48 0
  78 0024 0B4B     		ldr	r3, .L9+8
  79 0026 1B78     		ldrb	r3, [r3]
  80 0028 DBB2     		uxtb	r3, r3
  81 002a 012B     		cmp	r3, #1
  82 002c 05D0     		beq	.L7
  50:.\app_Ble.c   ****                 SendCommand();/*This will send the command over BLE*/
  83              		.loc 1 50 0
  84 002e FFF7FEFF 		bl	SendCommand
  51:.\app_Ble.c   **** 				applicationPower = DEEPSLEEP;/*Once command has been sent the state has been set to DEEPSLEEP*/
  85              		.loc 1 51 0
  86 0032 094B     		ldr	r3, .L9+12
  87 0034 0522     		mov	r2, #5
  88 0036 1A70     		strb	r2, [r3]
  54:.\app_Ble.c   **** 			break;
  89              		.loc 1 54 0
  90 0038 05E0     		b	.L1
  91              	.L7:
  92 003a 04E0     		b	.L1
  93              	.L4:
  57:.\app_Ble.c   ****         	CyBle_GappStartAdvertisement(CYBLE_ADVERTISING_FAST);
  94              		.loc 1 57 0
  95 003c 0020     		mov	r0, #0
  96 003e FFF7FEFF 		bl	CyBle_GappStartAdvertisement
  58:.\app_Ble.c   ****         	break;
  97              		.loc 1 58 0
  98 0042 00E0     		b	.L1
  99              	.L8:
  41:.\app_Ble.c   ****             break;
 100              		.loc 1 41 0
 101 0044 C046     		mov	r8, r8
ARM GAS  C:\Users\jsing\AppData\Local\Temp\ccvcCYY7.s 			page 4


 102              	.L1:
  61:.\app_Ble.c   ****     }
  62:.\app_Ble.c   **** }
 103              		.loc 1 62 0
 104 0046 BD46     		mov	sp, r7
 105              		@ sp needed
 106 0048 80BD     		pop	{r7, pc}
 107              	.L10:
 108 004a C046     		.align	2
 109              	.L9:
 110 004c 00000000 		.word	cyBle_state
 111 0050 00000000 		.word	connStatus
 112 0054 00000000 		.word	cyBle_busyStatus
 113 0058 00000000 		.word	applicationPower
 114              		.cfi_endproc
 115              	.LFE35:
 116              		.size	HandleBleProcessing, .-HandleBleProcessing
 117              		.section	.text.AppCallBack,"ax",%progbits
 118              		.align	2
 119              		.global	AppCallBack
 120              		.code	16
 121              		.thumb_func
 122              		.type	AppCallBack, %function
 123              	AppCallBack:
 124              	.LFB36:
  63:.\app_Ble.c   **** 
  64:.\app_Ble.c   **** /*******************************************************************************
  65:.\app_Ble.c   **** * Function Name: AppCallBack
  66:.\app_Ble.c   **** ********************************************************************************
  67:.\app_Ble.c   **** *
  68:.\app_Ble.c   **** * Summary:
  69:.\app_Ble.c   **** *   Call back function for BLE stack to handle BLESS events
  70:.\app_Ble.c   **** *
  71:.\app_Ble.c   **** * Parameters:
  72:.\app_Ble.c   **** *   event       - the event generated by stack
  73:.\app_Ble.c   **** *   eventParam  - the parameters related to the corresponding event
  74:.\app_Ble.c   **** *
  75:.\app_Ble.c   **** * Return:
  76:.\app_Ble.c   **** *   None.
  77:.\app_Ble.c   **** *
  78:.\app_Ble.c   **** *******************************************************************************/
  79:.\app_Ble.c   **** void AppCallBack(uint32 event, void *eventParam)
  80:.\app_Ble.c   **** {   
 125              		.loc 1 80 0
 126              		.cfi_startproc
 127 0000 80B5     		push	{r7, lr}
 128              		.cfi_def_cfa_offset 8
 129              		.cfi_offset 7, -8
 130              		.cfi_offset 14, -4
 131 0002 82B0     		sub	sp, sp, #8
 132              		.cfi_def_cfa_offset 16
 133 0004 00AF     		add	r7, sp, #0
 134              		.cfi_def_cfa_register 7
 135 0006 7860     		str	r0, [r7, #4]
 136 0008 3960     		str	r1, [r7]
  81:.\app_Ble.c   ****     switch (event)
 137              		.loc 1 81 0
ARM GAS  C:\Users\jsing\AppData\Local\Temp\ccvcCYY7.s 			page 5


 138 000a 7B68     		ldr	r3, [r7, #4]
 139 000c 282B     		cmp	r3, #40
 140 000e 15D0     		beq	.L21
 141 0010 02D8     		bhi	.L14
 142 0012 012B     		cmp	r3, #1
 143 0014 14D0     		beq	.L22
  82:.\app_Ble.c   ****     {
  83:.\app_Ble.c   ****         case CYBLE_EVT_STACK_ON:
  84:.\app_Ble.c   ****             break;
  85:.\app_Ble.c   ****             
  86:.\app_Ble.c   ****         case CYBLE_EVT_GAP_DEVICE_DISCONNECTED:
  87:.\app_Ble.c   ****             break;
  88:.\app_Ble.c   ****             
  89:.\app_Ble.c   ****         case CYBLE_EVT_GATT_CONNECT_IND:
  90:.\app_Ble.c   ****             break;
  91:.\app_Ble.c   ****         
  92:.\app_Ble.c   ****                
  93:.\app_Ble.c   ****         case CYBLE_EVT_GATTS_XCNHG_MTU_REQ:
  94:.\app_Ble.c   ****             
  95:.\app_Ble.c   ****             if(CYBLE_GATT_MTU > ((CYBLE_GATT_XCHG_MTU_PARAM_T *)eventParam)->mtu)
  96:.\app_Ble.c   ****             {
  97:.\app_Ble.c   ****                 mtuSize = ((CYBLE_GATT_XCHG_MTU_PARAM_T *)eventParam)->mtu;
  98:.\app_Ble.c   ****             }
  99:.\app_Ble.c   ****             else
 100:.\app_Ble.c   ****             {
 101:.\app_Ble.c   ****                 mtuSize = CYBLE_GATT_MTU;
 102:.\app_Ble.c   ****             }
 103:.\app_Ble.c   ****             
 104:.\app_Ble.c   ****             break;
 105:.\app_Ble.c   ****         default:
 106:.\app_Ble.c   ****             break;
 144              		.loc 1 106 0
 145 0016 16E0     		b	.L11
 146              	.L14:
  81:.\app_Ble.c   ****     switch (event)
 147              		.loc 1 81 0
 148 0018 412B     		cmp	r3, #65
 149 001a 13D0     		beq	.L23
 150 001c 432B     		cmp	r3, #67
 151 001e 00D0     		beq	.L17
 152              		.loc 1 106 0
 153 0020 11E0     		b	.L11
 154              	.L17:
  95:.\app_Ble.c   ****             if(CYBLE_GATT_MTU > ((CYBLE_GATT_XCHG_MTU_PARAM_T *)eventParam)->mtu)
 155              		.loc 1 95 0
 156 0022 3B68     		ldr	r3, [r7]
 157 0024 5B88     		ldrh	r3, [r3, #2]
 158 0026 162B     		cmp	r3, #22
 159 0028 04D8     		bhi	.L19
  97:.\app_Ble.c   ****                 mtuSize = ((CYBLE_GATT_XCHG_MTU_PARAM_T *)eventParam)->mtu;
 160              		.loc 1 97 0
 161 002a 3B68     		ldr	r3, [r7]
 162 002c 5A88     		ldrh	r2, [r3, #2]
 163 002e 074B     		ldr	r3, .L24
 164 0030 1A80     		strh	r2, [r3]
 104:.\app_Ble.c   ****             break;
 165              		.loc 1 104 0
ARM GAS  C:\Users\jsing\AppData\Local\Temp\ccvcCYY7.s 			page 6


 166 0032 08E0     		b	.L11
 167              	.L19:
 101:.\app_Ble.c   ****                 mtuSize = CYBLE_GATT_MTU;
 168              		.loc 1 101 0
 169 0034 054B     		ldr	r3, .L24
 170 0036 1722     		mov	r2, #23
 171 0038 1A80     		strh	r2, [r3]
 104:.\app_Ble.c   ****             break;
 172              		.loc 1 104 0
 173 003a 04E0     		b	.L11
 174              	.L21:
  87:.\app_Ble.c   ****             break;
 175              		.loc 1 87 0
 176 003c C046     		mov	r8, r8
 177 003e 02E0     		b	.L11
 178              	.L22:
  84:.\app_Ble.c   ****             break;
 179              		.loc 1 84 0
 180 0040 C046     		mov	r8, r8
 181 0042 00E0     		b	.L11
 182              	.L23:
  90:.\app_Ble.c   ****             break;
 183              		.loc 1 90 0
 184 0044 C046     		mov	r8, r8
 185              	.L11:
 107:.\app_Ble.c   ****     }
 108:.\app_Ble.c   **** }
 186              		.loc 1 108 0
 187 0046 BD46     		mov	sp, r7
 188 0048 02B0     		add	sp, sp, #8
 189              		@ sp needed
 190 004a 80BD     		pop	{r7, pc}
 191              	.L25:
 192              		.align	2
 193              	.L24:
 194 004c 00000000 		.word	mtuSize
 195              		.cfi_endproc
 196              	.LFE36:
 197              		.size	AppCallBack, .-AppCallBack
 198              		.text
 199              	.Letext0:
 200              		.file 2 ".\\Generated_Source\\PSoC4/cytypes.h"
 201              		.file 3 ".\\Generated_Source\\PSoC4/BLE_Stack.h"
 202              		.file 4 ".\\Generated_Source\\PSoC4/BLE_StackGatt.h"
 203              		.file 5 ".\\Generated_Source\\PSoC4/BLE_eventHandler.h"
 204              		.file 6 ".\\app_accel.h"
 205              		.file 7 ".\\main.h"