ARM GAS  C:\Users\jsing\AppData\Local\Temp\cckev44u.s 			page 1


   1              		.cpu cortex-m0
   2              		.fpu softvfp
   3              		.eabi_attribute 20, 1
   4              		.eabi_attribute 21, 1
   5              		.eabi_attribute 23, 3
   6              		.eabi_attribute 24, 1
   7              		.eabi_attribute 25, 1
   8              		.eabi_attribute 26, 1
   9              		.eabi_attribute 30, 6
  10              		.eabi_attribute 34, 0
  11              		.eabi_attribute 18, 4
  12              		.code	16
  13              		.file	"main.c"
  14              		.text
  15              	.Ltext0:
  16              		.cfi_sections	.debug_frame
  17              		.comm	scan_status,1,1
  18              		.comm	x,1,1
  19              		.comm	y,1,1
  20              		.comm	z,1,1
  21              		.comm	ADC_x_current,2,2
  22              		.comm	ADC_y_current,2,2
  23              		.comm	ADC_z_current,2,2
  24              		.comm	ADC_x_previous,2,2
  25              		.comm	ADC_y_previous,2,2
  26              		.comm	ADC_z_previous,2,2
  27              		.comm	BLE_Command,1,1
  28              		.comm	state,1,1
  29              		.comm	connStatus,1,1
  30              		.comm	lpMode,1,1
  31              		.comm	blessState,1,1
  32              		.comm	interruptStatus,1,1
  33              		.comm	applicationPower,1,1
  34              		.section	.text.ManageApplicationPower,"ax",%progbits
  35              		.align	2
  36              		.global	ManageApplicationPower
  37              		.code	16
  38              		.thumb_func
  39              		.type	ManageApplicationPower, %function
  40              	ManageApplicationPower:
  41              	.LFB35:
  42              		.file 1 ".\\main.c"
   1:.\main.c      **** /* ========================================
   2:.\main.c      ****  *
   3:.\main.c      ****  * Copyright YOUR COMPANY, THE YEAR
   4:.\main.c      ****  * All Rights Reserved
   5:.\main.c      ****  * UNPUBLISHED, LICENSED SOFTWARE.
   6:.\main.c      ****  *
   7:.\main.c      ****  * CONFIDENTIAL AND PROPRIETARY INFORMATION
   8:.\main.c      ****  * WHICH IS THE PROPERTY OF your company.
   9:.\main.c      ****  *
  10:.\main.c      ****  * ========================================
  11:.\main.c      **** */
  12:.\main.c      **** #include <project.h>
  13:.\main.c      **** #include "main.h"
  14:.\main.c      **** 
  15:.\main.c      **** uint8 applicationPower;
ARM GAS  C:\Users\jsing\AppData\Local\Temp\cckev44u.s 			page 2


  16:.\main.c      **** 
  17:.\main.c      **** /*******************************************************************************
  18:.\main.c      **** * Function Name: ManageApplicationPower
  19:.\main.c      **** ********************************************************************************
  20:.\main.c      **** *
  21:.\main.c      **** * Summary:
  22:.\main.c      **** *   Handle ADC sleep and wake up and also switch between the various low power states
  23:.\main.c      **** *   during different states of BLESS.
  24:.\main.c      **** *
  25:.\main.c      **** * Parameters:
  26:.\main.c      **** *   None.
  27:.\main.c      **** *
  28:.\main.c      **** * Return:
  29:.\main.c      **** *   None.
  30:.\main.c      **** *
  31:.\main.c      **** *******************************************************************************/
  32:.\main.c      **** 
  33:.\main.c      **** void ManageApplicationPower()
  34:.\main.c      **** {
  43              		.loc 1 34 0
  44              		.cfi_startproc
  45 0000 80B5     		push	{r7, lr}
  46              		.cfi_def_cfa_offset 8
  47              		.cfi_offset 7, -8
  48              		.cfi_offset 14, -4
  49 0002 00AF     		add	r7, sp, #0
  50              		.cfi_def_cfa_register 7
  35:.\main.c      ****  	switch(applicationPower)
  51              		.loc 1 35 0
  52 0004 0E4B     		ldr	r3, .L9
  53 0006 1B78     		ldrb	r3, [r3]
  54 0008 052B     		cmp	r3, #5
  55 000a 16D8     		bhi	.L1
  56 000c 9A00     		lsl	r2, r3, #2
  57 000e 0D4B     		ldr	r3, .L9+4
  58 0010 D318     		add	r3, r2, r3
  59 0012 1B68     		ldr	r3, [r3]
  60 0014 9F46     		mov	pc, r3
  61              		.section	.rodata
  62              		.align	2
  63              	.L4:
  64 0000 3A000000 		.word	.L1
  65 0004 3A000000 		.word	.L1
  66 0008 16000000 		.word	.L5
  67 000c 22000000 		.word	.L6
  68 0010 2E000000 		.word	.L7
  69 0014 34000000 		.word	.L8
  70              		.section	.text.ManageApplicationPower
  71              	.L5:
  36:.\main.c      ****  	{
  37:.\main.c      ****  	case ACTIVE: // don’t need to do anything
  38:.\main.c      ****  	break;
  39:.\main.c      **** 
  40:.\main.c      ****  	case WAKEUP_SLEEP: // do whatever wakeup needs to be done
  41:.\main.c      **** 		Sensor_ADC_Wakeup();
  72              		.loc 1 41 0
  73 0016 FFF7FEFF 		bl	Sensor_ADC_Wakeup
ARM GAS  C:\Users\jsing\AppData\Local\Temp\cckev44u.s 			page 3


  42:.\main.c      ****  		applicationPower = ACTIVE;
  74              		.loc 1 42 0
  75 001a 094B     		ldr	r3, .L9
  76 001c 0122     		mov	r2, #1
  77 001e 1A70     		strb	r2, [r3]
  43:.\main.c      ****  	break;
  78              		.loc 1 43 0
  79 0020 0BE0     		b	.L1
  80              	.L6:
  44:.\main.c      **** 
  45:.\main.c      ****  	case WAKEUP_DEEPSLEEP: // do whatever wakeup needs to be done.
  46:.\main.c      **** 		Sensor_ADC_Wakeup();
  81              		.loc 1 46 0
  82 0022 FFF7FEFF 		bl	Sensor_ADC_Wakeup
  47:.\main.c      ****  		applicationPower = ACTIVE;
  83              		.loc 1 47 0
  84 0026 064B     		ldr	r3, .L9
  85 0028 0122     		mov	r2, #1
  86 002a 1A70     		strb	r2, [r3]
  48:.\main.c      ****  	break;
  87              		.loc 1 48 0
  88 002c 05E0     		b	.L1
  89              	.L7:
  49:.\main.c      **** 
  50:.\main.c      ****  	case SLEEP:
  51:.\main.c      ****  		Sensor_ADC_Sleep();
  90              		.loc 1 51 0
  91 002e FFF7FEFF 		bl	Sensor_ADC_Sleep
  52:.\main.c      ****  	break;
  92              		.loc 1 52 0
  93 0032 02E0     		b	.L1
  94              	.L8:
  53:.\main.c      **** 	
  54:.\main.c      **** 	case DEEPSLEEP:
  55:.\main.c      ****  		Sensor_ADC_Sleep();
  95              		.loc 1 55 0
  96 0034 FFF7FEFF 		bl	Sensor_ADC_Sleep
  56:.\main.c      **** 	 break;
  97              		.loc 1 56 0
  98 0038 C046     		mov	r8, r8
  99              	.L1:
  57:.\main.c      ****  	}
  58:.\main.c      **** }
 100              		.loc 1 58 0
 101 003a BD46     		mov	sp, r7
 102              		@ sp needed
 103 003c 80BD     		pop	{r7, pc}
 104              	.L10:
 105 003e C046     		.align	2
 106              	.L9:
 107 0040 00000000 		.word	applicationPower
 108 0044 00000000 		.word	.L4
 109              		.cfi_endproc
 110              	.LFE35:
 111              		.size	ManageApplicationPower, .-ManageApplicationPower
 112              		.section	.text.ManageSystemPower,"ax",%progbits
 113              		.align	2
ARM GAS  C:\Users\jsing\AppData\Local\Temp\cckev44u.s 			page 4


 114              		.global	ManageSystemPower
 115              		.code	16
 116              		.thumb_func
 117              		.type	ManageSystemPower, %function
 118              	ManageSystemPower:
 119              	.LFB36:
  59:.\main.c      **** 
  60:.\main.c      **** /*******************************************************************************
  61:.\main.c      **** * Function Name: ManageSystemPower
  62:.\main.c      **** ********************************************************************************
  63:.\main.c      **** *
  64:.\main.c      **** * Summary:
  65:.\main.c      **** *   Checks the current low power stste, the BLESS status and put the BLESS and the 
  66:.\main.c      **** *	system into apropriate lowpower stste.
  67:.\main.c      **** *
  68:.\main.c      **** * Parameters:
  69:.\main.c      **** *   None.
  70:.\main.c      **** *
  71:.\main.c      **** * Return:
  72:.\main.c      **** *   None.
  73:.\main.c      **** *
  74:.\main.c      **** *******************************************************************************/
  75:.\main.c      **** 
  76:.\main.c      **** 
  77:.\main.c      **** void ManageSystemPower()
  78:.\main.c      **** {
 120              		.loc 1 78 0
 121              		.cfi_startproc
 122 0000 90B5     		push	{r4, r7, lr}
 123              		.cfi_def_cfa_offset 12
 124              		.cfi_offset 4, -12
 125              		.cfi_offset 7, -8
 126              		.cfi_offset 14, -4
 127 0002 83B0     		sub	sp, sp, #12
 128              		.cfi_def_cfa_offset 24
 129 0004 00AF     		add	r7, sp, #0
 130              		.cfi_def_cfa_register 7
  79:.\main.c      **** 	CYBLE_BLESS_STATE_T blePower;
  80:.\main.c      ****  	uint8 interruptStatus ;
  81:.\main.c      **** 	interruptStatus = CyEnterCriticalSection();
 131              		.loc 1 81 0
 132 0006 FC1D     		add	r4, r7, #7
 133 0008 FFF7FEFF 		bl	CyEnterCriticalSection
 134 000c 031C     		mov	r3, r0
 135 000e 2370     		strb	r3, [r4]
  82:.\main.c      **** 	blePower = CyBle_GetBleSsState();
 136              		.loc 1 82 0
 137 0010 BC1D     		add	r4, r7, #6
 138 0012 FFF7FEFF 		bl	CyBle_GetBleSsState
 139 0016 031C     		mov	r3, r0
 140 0018 2370     		strb	r3, [r4]
  83:.\main.c      **** 	if((blePower == CYBLE_BLESS_STATE_DEEPSLEEP || blePower == CYBLE_BLESS_STATE_ECO_ON) && applicatio
 141              		.loc 1 83 0
 142 001a BB1D     		add	r3, r7, #6
 143 001c 1B78     		ldrb	r3, [r3]
 144 001e 062B     		cmp	r3, #6
 145 0020 03D0     		beq	.L12
ARM GAS  C:\Users\jsing\AppData\Local\Temp\cckev44u.s 			page 5


 146              		.loc 1 83 0 is_stmt 0 discriminator 2
 147 0022 BB1D     		add	r3, r7, #6
 148 0024 1B78     		ldrb	r3, [r3]
 149 0026 042B     		cmp	r3, #4
 150 0028 09D1     		bne	.L13
 151              	.L12:
 152              		.loc 1 83 0 discriminator 1
 153 002a 194B     		ldr	r3, .L16
 154 002c 1B78     		ldrb	r3, [r3]
 155 002e 052B     		cmp	r3, #5
 156 0030 05D1     		bne	.L13
  84:.\main.c      ****  	{
  85:.\main.c      ****  		applicationPower = WAKEUP_DEEPSLEEP;
 157              		.loc 1 85 0 is_stmt 1
 158 0032 174B     		ldr	r3, .L16
 159 0034 0322     		mov	r2, #3
 160 0036 1A70     		strb	r2, [r3]
  86:.\main.c      ****  		/*Put system into Deep-Sleep mode*/
  87:.\main.c      ****  		CySysPmDeepSleep();
 161              		.loc 1 87 0
 162 0038 FFF7FEFF 		bl	CySysPmDeepSleep
 163 003c 20E0     		b	.L14
 164              	.L13:
  88:.\main.c      ****  	}
  89:.\main.c      ****  	/* BLESS is not in Deep Sleep mode. Check if it can enter Sleep mode */
  90:.\main.c      ****  	else if((blePower != CYBLE_BLESS_STATE_EVENT_CLOSE))
 165              		.loc 1 90 0
 166 003e BB1D     		add	r3, r7, #6
 167 0040 1B78     		ldrb	r3, [r3]
 168 0042 022B     		cmp	r3, #2
 169 0044 1CD0     		beq	.L14
  91:.\main.c      ****  	{
  92:.\main.c      ****  	/* Application is in Deep Sleep. IMO is not required */
  93:.\main.c      ****  		if(applicationPower == DEEPSLEEP)
 170              		.loc 1 93 0
 171 0046 124B     		ldr	r3, .L16
 172 0048 1B78     		ldrb	r3, [r3]
 173 004a 052B     		cmp	r3, #5
 174 004c 0FD1     		bne	.L15
  94:.\main.c      ****  		{
  95:.\main.c      ****  			applicationPower = WAKEUP_DEEPSLEEP;
 175              		.loc 1 95 0
 176 004e 104B     		ldr	r3, .L16
 177 0050 0322     		mov	r2, #3
 178 0052 1A70     		strb	r2, [r3]
  96:.\main.c      **** 			/*Change HF clock source from IMO to ECO*/
  97:.\main.c      **** 			CySysClkWriteHfclkDirect(CY_SYS_CLK_HFCLK_ECO);
 179              		.loc 1 97 0
 180 0054 0220     		mov	r0, #2
 181 0056 FFF7FEFF 		bl	CySysClkWriteHfclkDirect
  98:.\main.c      **** 			 /* Stop IMO for reducing power consumption */
  99:.\main.c      **** 			CySysClkImoStop();
 182              		.loc 1 99 0
 183 005a FFF7FEFF 		bl	CySysClkImoStop
 100:.\main.c      **** 			 /*Put the CPU to sleep */
 101:.\main.c      **** 			CySysPmSleep();
 184              		.loc 1 101 0
ARM GAS  C:\Users\jsing\AppData\Local\Temp\cckev44u.s 			page 6


 185 005e FFF7FEFF 		bl	CySysPmSleep
 102:.\main.c      **** 			 /* Starts execution after waking up, start IMO */
 103:.\main.c      **** 			CySysClkImoStart();
 186              		.loc 1 103 0
 187 0062 FFF7FEFF 		bl	CySysClkImoStart
 104:.\main.c      **** 			 /* Change HF clock source back to IMO */
 105:.\main.c      **** 			CySysClkWriteHfclkDirect(CY_SYS_CLK_HFCLK_IMO);
 188              		.loc 1 105 0
 189 0066 0020     		mov	r0, #0
 190 0068 FFF7FEFF 		bl	CySysClkWriteHfclkDirect
 191 006c 08E0     		b	.L14
 192              	.L15:
 106:.\main.c      ****  		}
 107:.\main.c      ****  		/* Application components need IMO clock */
 108:.\main.c      ****  		else if(applicationPower == SLEEP )
 193              		.loc 1 108 0
 194 006e 084B     		ldr	r3, .L16
 195 0070 1B78     		ldrb	r3, [r3]
 196 0072 042B     		cmp	r3, #4
 197 0074 04D1     		bne	.L14
 109:.\main.c      ****  		{
 110:.\main.c      ****  			/* Put the system into Sleep mode*/
 111:.\main.c      ****  			applicationPower = WAKEUP_SLEEP;
 198              		.loc 1 111 0
 199 0076 064B     		ldr	r3, .L16
 200 0078 0222     		mov	r2, #2
 201 007a 1A70     		strb	r2, [r3]
 112:.\main.c      ****  			CySysPmSleep();
 202              		.loc 1 112 0
 203 007c FFF7FEFF 		bl	CySysPmSleep
 204              	.L14:
 113:.\main.c      ****  		}
 114:.\main.c      ****  }
 115:.\main.c      **** 	/* Enable interrupts */
 116:.\main.c      ****  	CyExitCriticalSection(interruptStatus );
 205              		.loc 1 116 0
 206 0080 FB1D     		add	r3, r7, #7
 207 0082 1B78     		ldrb	r3, [r3]
 208 0084 181C     		mov	r0, r3
 209 0086 FFF7FEFF 		bl	CyExitCriticalSection
 117:.\main.c      **** }
 210              		.loc 1 117 0
 211 008a BD46     		mov	sp, r7
 212 008c 03B0     		add	sp, sp, #12
 213              		@ sp needed
 214 008e 90BD     		pop	{r4, r7, pc}
 215              	.L17:
 216              		.align	2
 217              	.L16:
 218 0090 00000000 		.word	applicationPower
 219              		.cfi_endproc
 220              	.LFE36:
 221              		.size	ManageSystemPower, .-ManageSystemPower
 222              		.section	.text.main,"ax",%progbits
 223              		.align	2
 224              		.global	main
 225              		.code	16
ARM GAS  C:\Users\jsing\AppData\Local\Temp\cckev44u.s 			page 7


 226              		.thumb_func
 227              		.type	main, %function
 228              	main:
 229              	.LFB37:
 118:.\main.c      **** 	
 119:.\main.c      **** 
 120:.\main.c      **** 
 121:.\main.c      **** int main()
 122:.\main.c      **** {
 230              		.loc 1 122 0
 231              		.cfi_startproc
 232 0000 80B5     		push	{r7, lr}
 233              		.cfi_def_cfa_offset 8
 234              		.cfi_offset 7, -8
 235              		.cfi_offset 14, -4
 236 0002 00AF     		add	r7, sp, #0
 237              		.cfi_def_cfa_register 7
 123:.\main.c      ****     
 124:.\main.c      ****     /* Place your initialization/startup code here (e.g. MyInst_Start()) */
 125:.\main.c      **** 	CyGlobalIntEnable;
 238              		.loc 1 125 0
 239              	@ 125 ".\main.c" 1
 240 0004 62B6     		CPSIE   i
 241              	@ 0 "" 2
 126:.\main.c      **** 	CySysClkIloStop();
 242              		.loc 1 126 0
 243              		.code	16
 244 0006 FFF7FEFF 		bl	CySysClkIloStop
 127:.\main.c      **** 	CySysClkWriteEcoDiv(CY_SYS_CLK_ECO_DIV8);
 245              		.loc 1 127 0
 246 000a 0320     		mov	r0, #3
 247 000c FFF7FEFF 		bl	CySysClkWriteEcoDiv
 128:.\main.c      **** 
 129:.\main.c      ****    	
 130:.\main.c      **** 	/* Start UART and BLE component and display project information */
 131:.\main.c      ****     CyBle_Start(AppCallBack); 
 248              		.loc 1 131 0
 249 0010 134B     		ldr	r3, .L23
 250 0012 181C     		mov	r0, r3
 251 0014 FFF7FEFF 		bl	CyBle_Start
 132:.\main.c      **** 	while (CyBle_GetState() == CYBLE_STATE_INITIALIZING)
 252              		.loc 1 132 0
 253 0018 01E0     		b	.L19
 254              	.L20:
 133:.\main.c      ****  	{
 134:.\main.c      ****  	CyBle_ProcessEvents();
 255              		.loc 1 134 0
 256 001a FFF7FEFF 		bl	CyBle_ProcessEvents
 257              	.L19:
 132:.\main.c      **** 	while (CyBle_GetState() == CYBLE_STATE_INITIALIZING)
 258              		.loc 1 132 0 discriminator 1
 259 001e 114B     		ldr	r3, .L23+4
 260 0020 1B78     		ldrb	r3, [r3]
 261 0022 012B     		cmp	r3, #1
 262 0024 F9D0     		beq	.L20
 135:.\main.c      ****  	}
 136:.\main.c      **** 	
ARM GAS  C:\Users\jsing\AppData\Local\Temp\cckev44u.s 			page 8


 137:.\main.c      ****     state=NORMAL; /*The default state is 'Normal'*/
 263              		.loc 1 137 0
 264 0026 104B     		ldr	r3, .L23+8
 265 0028 0022     		mov	r2, #0
 266 002a 1A70     		strb	r2, [r3]
 138:.\main.c      **** 	applicationPower = ACTIVE;
 267              		.loc 1 138 0
 268 002c 0F4B     		ldr	r3, .L23+12
 269 002e 0122     		mov	r2, #1
 270 0030 1A70     		strb	r2, [r3]
 139:.\main.c      **** 	/*Starting ADC and the interrupt connected to eoc of ADC. This interrupt will wake up the device f
 140:.\main.c      ****     Sensor_ADC_Start();
 271              		.loc 1 140 0
 272 0032 FFF7FEFF 		bl	Sensor_ADC_Start
 141:.\main.c      **** 	WakeUpISR_Start();
 273              		.loc 1 141 0
 274 0036 FFF7FEFF 		bl	WakeUpISR_Start
 142:.\main.c      **** 	Sensor_ADC_StartConvert();
 275              		.loc 1 142 0
 276 003a FFF7FEFF 		bl	Sensor_ADC_StartConvert
 277              	.L22:
 143:.\main.c      **** 	
 144:.\main.c      ****     /***************************************************************************
 145:.\main.c      ****     * Main polling loop
 146:.\main.c      ****     ***************************************************************************/
 147:.\main.c      ****     while(1)
 148:.\main.c      ****     {              
 149:.\main.c      ****     
 150:.\main.c      **** 		/*******************************************************************
 151:.\main.c      ****         *  Process all pending BLE events in the stack
 152:.\main.c      ****         *******************************************************************/  
 153:.\main.c      **** 		CyBle_ProcessEvents();
 278              		.loc 1 153 0
 279 003e FFF7FEFF 		bl	CyBle_ProcessEvents
 154:.\main.c      **** 		CyBle_EnterLPM(CYBLE_BLESS_DEEPSLEEP); 
 280              		.loc 1 154 0
 281 0042 0320     		mov	r0, #3
 282 0044 FFF7FEFF 		bl	CyBle_EnterLPM
 155:.\main.c      **** 		
 156:.\main.c      ****         if(applicationPower == ACTIVE)
 283              		.loc 1 156 0
 284 0048 084B     		ldr	r3, .L23+12
 285 004a 1B78     		ldrb	r3, [r3]
 286 004c 012B     		cmp	r3, #1
 287 004e 01D1     		bne	.L21
 157:.\main.c      ****  		{
 158:.\main.c      ****  		HandleBleProcessing();/* The main function which BLE based tasks are done. When the tasks are do
 288              		.loc 1 158 0
 289 0050 FFF7FEFF 		bl	HandleBleProcessing
 290              	.L21:
 159:.\main.c      **** 		}
 160:.\main.c      **** 		ManageApplicationPower();
 291              		.loc 1 160 0
 292 0054 FFF7FEFF 		bl	ManageApplicationPower
 161:.\main.c      **** 		ManageSystemPower(); 
 293              		.loc 1 161 0
 294 0058 FFF7FEFF 		bl	ManageSystemPower
ARM GAS  C:\Users\jsing\AppData\Local\Temp\cckev44u.s 			page 9


 162:.\main.c      **** 		
 163:.\main.c      **** 	}
 295              		.loc 1 163 0
 296 005c EFE7     		b	.L22
 297              	.L24:
 298 005e C046     		.align	2
 299              	.L23:
 300 0060 00000000 		.word	AppCallBack
 301 0064 00000000 		.word	cyBle_state
 302 0068 00000000 		.word	state
 303 006c 00000000 		.word	applicationPower
 304              		.cfi_endproc
 305              	.LFE37:
 306              		.size	main, .-main
 307              		.text
 308              	.Letext0:
 309              		.file 2 ".\\Generated_Source\\PSoC4/cytypes.h"
 310              		.file 3 ".\\Generated_Source\\PSoC4/BLE_Stack.h"
 311              		.file 4 ".\\Generated_Source\\PSoC4/BLE_eventHandler.h"
 312              		.file 5 ".\\app_accel.h"
 313              		.file 6 ".\\main.h"