ARM GAS  C:\Users\jsing\AppData\Local\Temp\ccIpowyF.s 			page 1


   1              		.cpu cortex-m0
   2              		.fpu softvfp
   3              		.eabi_attribute 20, 1
   4              		.eabi_attribute 21, 1
   5              		.eabi_attribute 23, 3
   6              		.eabi_attribute 24, 1
   7              		.eabi_attribute 25, 1
   8              		.eabi_attribute 26, 1
   9              		.eabi_attribute 30, 6
  10              		.eabi_attribute 34, 0
  11              		.eabi_attribute 18, 4
  12              		.code	16
  13              		.file	"Sensor_ADC.c"
  14              		.text
  15              	.Ltext0:
  16              		.cfi_sections	.debug_frame
  17              		.global	Sensor_ADC_initVar
  18              		.bss
  19              		.type	Sensor_ADC_initVar, %object
  20              		.size	Sensor_ADC_initVar, 1
  21              	Sensor_ADC_initVar:
  22 0000 00       		.space	1
  23              		.comm	Sensor_ADC_offset,6,4
  24              		.comm	Sensor_ADC_countsPer10Volt,12,4
  25              		.section	.rodata
  26              		.align	2
  27              		.type	Sensor_ADC_channelsConfig, %object
  28              		.size	Sensor_ADC_channelsConfig, 12
  29              	Sensor_ADC_channelsConfig:
  30 0000 00040000 		.word	1024
  31 0004 00040000 		.word	1024
  32 0008 00040000 		.word	1024
  33              		.section	.text.Sensor_ADC_Start,"ax",%progbits
  34              		.align	2
  35              		.global	Sensor_ADC_Start
  36              		.code	16
  37              		.thumb_func
  38              		.type	Sensor_ADC_Start, %function
  39              	Sensor_ADC_Start:
  40              	.LFB2:
  41              		.file 1 ".\\Generated_Source\\PSoC4\\Sensor_ADC.c"
   1:.\Generated_Source\PSoC4/Sensor_ADC.c **** /*******************************************************************************
   2:.\Generated_Source\PSoC4/Sensor_ADC.c **** * File Name: Sensor_ADC.c
   3:.\Generated_Source\PSoC4/Sensor_ADC.c **** * Version 2.10
   4:.\Generated_Source\PSoC4/Sensor_ADC.c **** *
   5:.\Generated_Source\PSoC4/Sensor_ADC.c **** * Description:
   6:.\Generated_Source\PSoC4/Sensor_ADC.c **** *  This file provides the source code to the API for the Sequencing Successive
   7:.\Generated_Source\PSoC4/Sensor_ADC.c **** *  Approximation ADC Component Component.
   8:.\Generated_Source\PSoC4/Sensor_ADC.c **** *
   9:.\Generated_Source\PSoC4/Sensor_ADC.c **** * Note:
  10:.\Generated_Source\PSoC4/Sensor_ADC.c **** *
  11:.\Generated_Source\PSoC4/Sensor_ADC.c **** ********************************************************************************
  12:.\Generated_Source\PSoC4/Sensor_ADC.c **** * Copyright 2008-2015, Cypress Semiconductor Corporation.  All rights reserved.
  13:.\Generated_Source\PSoC4/Sensor_ADC.c **** * You may use this file only in accordance with the license, terms, conditions,
  14:.\Generated_Source\PSoC4/Sensor_ADC.c **** * disclaimers, and limitations in the end user license agreement accompanying
  15:.\Generated_Source\PSoC4/Sensor_ADC.c **** * the software package with which this file was provided.
  16:.\Generated_Source\PSoC4/Sensor_ADC.c **** *******************************************************************************/
ARM GAS  C:\Users\jsing\AppData\Local\Temp\ccIpowyF.s 			page 2


  17:.\Generated_Source\PSoC4/Sensor_ADC.c **** 
  18:.\Generated_Source\PSoC4/Sensor_ADC.c **** #include "Sensor_ADC.h"
  19:.\Generated_Source\PSoC4/Sensor_ADC.c **** 
  20:.\Generated_Source\PSoC4/Sensor_ADC.c **** 
  21:.\Generated_Source\PSoC4/Sensor_ADC.c **** /***************************************
  22:.\Generated_Source\PSoC4/Sensor_ADC.c **** * Global data allocation
  23:.\Generated_Source\PSoC4/Sensor_ADC.c **** ***************************************/
  24:.\Generated_Source\PSoC4/Sensor_ADC.c **** uint8 Sensor_ADC_initVar = 0u;
  25:.\Generated_Source\PSoC4/Sensor_ADC.c **** volatile int16 Sensor_ADC_offset[Sensor_ADC_TOTAL_CHANNELS_NUM];
  26:.\Generated_Source\PSoC4/Sensor_ADC.c **** volatile int32 Sensor_ADC_countsPer10Volt[Sensor_ADC_TOTAL_CHANNELS_NUM];   /* Gain compensation */
  27:.\Generated_Source\PSoC4/Sensor_ADC.c **** 
  28:.\Generated_Source\PSoC4/Sensor_ADC.c **** 
  29:.\Generated_Source\PSoC4/Sensor_ADC.c **** /***************************************
  30:.\Generated_Source\PSoC4/Sensor_ADC.c **** * Local data allocation
  31:.\Generated_Source\PSoC4/Sensor_ADC.c **** ***************************************/
  32:.\Generated_Source\PSoC4/Sensor_ADC.c **** /* Channels configuration generated by customiser */
  33:.\Generated_Source\PSoC4/Sensor_ADC.c **** static const uint32 CYCODE Sensor_ADC_channelsConfig[] = { 0x00000400u, 0x00000400u, 0x00000400u };
  34:.\Generated_Source\PSoC4/Sensor_ADC.c **** 
  35:.\Generated_Source\PSoC4/Sensor_ADC.c **** 
  36:.\Generated_Source\PSoC4/Sensor_ADC.c **** /*******************************************************************************
  37:.\Generated_Source\PSoC4/Sensor_ADC.c **** * Function Name: Sensor_ADC_Start
  38:.\Generated_Source\PSoC4/Sensor_ADC.c **** ********************************************************************************
  39:.\Generated_Source\PSoC4/Sensor_ADC.c **** *
  40:.\Generated_Source\PSoC4/Sensor_ADC.c **** * Summary:
  41:.\Generated_Source\PSoC4/Sensor_ADC.c **** *  Performs all required initialization for this component
  42:.\Generated_Source\PSoC4/Sensor_ADC.c **** *  and enables the power. The power will be set to the appropriate
  43:.\Generated_Source\PSoC4/Sensor_ADC.c **** *  power based on the clock frequency.
  44:.\Generated_Source\PSoC4/Sensor_ADC.c **** *
  45:.\Generated_Source\PSoC4/Sensor_ADC.c **** * Parameters:
  46:.\Generated_Source\PSoC4/Sensor_ADC.c **** *  None.
  47:.\Generated_Source\PSoC4/Sensor_ADC.c **** *
  48:.\Generated_Source\PSoC4/Sensor_ADC.c **** * Return:
  49:.\Generated_Source\PSoC4/Sensor_ADC.c **** *  None.
  50:.\Generated_Source\PSoC4/Sensor_ADC.c **** *
  51:.\Generated_Source\PSoC4/Sensor_ADC.c **** * Global variables:
  52:.\Generated_Source\PSoC4/Sensor_ADC.c **** *  The Sensor_ADC_initVar variable is used to indicate when/if initial
  53:.\Generated_Source\PSoC4/Sensor_ADC.c **** *  configuration of this component has happened. The variable is initialized to
  54:.\Generated_Source\PSoC4/Sensor_ADC.c **** *  zero and set to 1 the first time ADC_Start() is called. This allows for
  55:.\Generated_Source\PSoC4/Sensor_ADC.c **** *  component Re-Start without re-initialization in all subsequent calls to the
  56:.\Generated_Source\PSoC4/Sensor_ADC.c **** *  Sensor_ADC_Start() routine.
  57:.\Generated_Source\PSoC4/Sensor_ADC.c **** *  If re-initialization of the component is required the variable should be set
  58:.\Generated_Source\PSoC4/Sensor_ADC.c **** *  to zero before call of Sensor_ADC_Start() routine, or the user may call
  59:.\Generated_Source\PSoC4/Sensor_ADC.c **** *  Sensor_ADC_Init() and Sensor_ADC_Enable() as done in the
  60:.\Generated_Source\PSoC4/Sensor_ADC.c **** *  Sensor_ADC_Start() routine.
  61:.\Generated_Source\PSoC4/Sensor_ADC.c **** *
  62:.\Generated_Source\PSoC4/Sensor_ADC.c **** *******************************************************************************/
  63:.\Generated_Source\PSoC4/Sensor_ADC.c **** void Sensor_ADC_Start(void)
  64:.\Generated_Source\PSoC4/Sensor_ADC.c **** {
  42              		.loc 1 64 0
  43              		.cfi_startproc
  44 0000 80B5     		push	{r7, lr}
  45              		.cfi_def_cfa_offset 8
  46              		.cfi_offset 7, -8
  47              		.cfi_offset 14, -4
  48 0002 00AF     		add	r7, sp, #0
  49              		.cfi_def_cfa_register 7
  65:.\Generated_Source\PSoC4/Sensor_ADC.c ****     /* If not Initialized then initialize all required hardware and software */
ARM GAS  C:\Users\jsing\AppData\Local\Temp\ccIpowyF.s 			page 3


  66:.\Generated_Source\PSoC4/Sensor_ADC.c ****     if(Sensor_ADC_initVar == 0u)
  50              		.loc 1 66 0
  51 0004 064B     		ldr	r3, .L3
  52 0006 1B78     		ldrb	r3, [r3]
  53 0008 002B     		cmp	r3, #0
  54 000a 04D1     		bne	.L2
  67:.\Generated_Source\PSoC4/Sensor_ADC.c ****     {
  68:.\Generated_Source\PSoC4/Sensor_ADC.c ****         Sensor_ADC_Init();
  55              		.loc 1 68 0
  56 000c FFF7FEFF 		bl	Sensor_ADC_Init
  69:.\Generated_Source\PSoC4/Sensor_ADC.c ****         Sensor_ADC_initVar = 1u;
  57              		.loc 1 69 0
  58 0010 034B     		ldr	r3, .L3
  59 0012 0122     		mov	r2, #1
  60 0014 1A70     		strb	r2, [r3]
  61              	.L2:
  70:.\Generated_Source\PSoC4/Sensor_ADC.c ****     }
  71:.\Generated_Source\PSoC4/Sensor_ADC.c ****     Sensor_ADC_Enable();
  62              		.loc 1 71 0
  63 0016 FFF7FEFF 		bl	Sensor_ADC_Enable
  72:.\Generated_Source\PSoC4/Sensor_ADC.c **** }
  64              		.loc 1 72 0
  65 001a BD46     		mov	sp, r7
  66              		@ sp needed
  67 001c 80BD     		pop	{r7, pc}
  68              	.L4:
  69 001e C046     		.align	2
  70              	.L3:
  71 0020 00000000 		.word	Sensor_ADC_initVar
  72              		.cfi_endproc
  73              	.LFE2:
  74              		.size	Sensor_ADC_Start, .-Sensor_ADC_Start
  75              		.global	__aeabi_idiv
  76              		.section	.text.Sensor_ADC_Init,"ax",%progbits
  77              		.align	2
  78              		.global	Sensor_ADC_Init
  79              		.code	16
  80              		.thumb_func
  81              		.type	Sensor_ADC_Init, %function
  82              	Sensor_ADC_Init:
  83              	.LFB3:
  73:.\Generated_Source\PSoC4/Sensor_ADC.c **** 
  74:.\Generated_Source\PSoC4/Sensor_ADC.c **** 
  75:.\Generated_Source\PSoC4/Sensor_ADC.c **** /*******************************************************************************
  76:.\Generated_Source\PSoC4/Sensor_ADC.c **** * Function Name: Sensor_ADC_Init
  77:.\Generated_Source\PSoC4/Sensor_ADC.c **** ********************************************************************************
  78:.\Generated_Source\PSoC4/Sensor_ADC.c **** *
  79:.\Generated_Source\PSoC4/Sensor_ADC.c **** * Summary:
  80:.\Generated_Source\PSoC4/Sensor_ADC.c **** *  Initialize component's parameters to the parameters set by user in the
  81:.\Generated_Source\PSoC4/Sensor_ADC.c **** *  customizer of the component placed onto schematic. Usually called in
  82:.\Generated_Source\PSoC4/Sensor_ADC.c **** *  Sensor_ADC_Start().
  83:.\Generated_Source\PSoC4/Sensor_ADC.c **** *
  84:.\Generated_Source\PSoC4/Sensor_ADC.c **** * Parameters:
  85:.\Generated_Source\PSoC4/Sensor_ADC.c **** *  None.
  86:.\Generated_Source\PSoC4/Sensor_ADC.c **** *
  87:.\Generated_Source\PSoC4/Sensor_ADC.c **** * Return:
  88:.\Generated_Source\PSoC4/Sensor_ADC.c **** *  None.
ARM GAS  C:\Users\jsing\AppData\Local\Temp\ccIpowyF.s 			page 4


  89:.\Generated_Source\PSoC4/Sensor_ADC.c **** *
  90:.\Generated_Source\PSoC4/Sensor_ADC.c **** * Global variables:
  91:.\Generated_Source\PSoC4/Sensor_ADC.c **** *  The Sensor_ADC_offset variable is initialized.
  92:.\Generated_Source\PSoC4/Sensor_ADC.c **** *
  93:.\Generated_Source\PSoC4/Sensor_ADC.c **** *******************************************************************************/
  94:.\Generated_Source\PSoC4/Sensor_ADC.c **** void Sensor_ADC_Init(void)
  95:.\Generated_Source\PSoC4/Sensor_ADC.c **** {
  84              		.loc 1 95 0
  85              		.cfi_startproc
  86 0000 90B5     		push	{r4, r7, lr}
  87              		.cfi_def_cfa_offset 12
  88              		.cfi_offset 4, -12
  89              		.cfi_offset 7, -8
  90              		.cfi_offset 14, -4
  91 0002 85B0     		sub	sp, sp, #20
  92              		.cfi_def_cfa_offset 32
  93 0004 00AF     		add	r7, sp, #0
  94              		.cfi_def_cfa_register 7
  96:.\Generated_Source\PSoC4/Sensor_ADC.c ****     uint32 chNum;
  97:.\Generated_Source\PSoC4/Sensor_ADC.c ****     uint32 tmpRegVal;
  98:.\Generated_Source\PSoC4/Sensor_ADC.c ****     int32 counts;
  99:.\Generated_Source\PSoC4/Sensor_ADC.c **** 
 100:.\Generated_Source\PSoC4/Sensor_ADC.c ****     #if(Sensor_ADC_TOTAL_CHANNELS_NUM > 1u)
 101:.\Generated_Source\PSoC4/Sensor_ADC.c ****         static const uint8 CYCODE Sensor_ADC_InputsPlacement[] =
 102:.\Generated_Source\PSoC4/Sensor_ADC.c ****         {
 103:.\Generated_Source\PSoC4/Sensor_ADC.c ****             (uint8)(Sensor_ADC_cy_psoc4_sarmux_8__CH_0_PORT << 4u) |
 104:.\Generated_Source\PSoC4/Sensor_ADC.c ****             (uint8)Sensor_ADC_cy_psoc4_sarmux_8__CH_0_PIN
 105:.\Generated_Source\PSoC4/Sensor_ADC.c ****             ,(uint8)(Sensor_ADC_cy_psoc4_sarmux_8__CH_1_PORT << 4u) |
 106:.\Generated_Source\PSoC4/Sensor_ADC.c ****              (uint8)Sensor_ADC_cy_psoc4_sarmux_8__CH_1_PIN
 107:.\Generated_Source\PSoC4/Sensor_ADC.c ****             #if(Sensor_ADC_TOTAL_CHANNELS_NUM > 2u)
 108:.\Generated_Source\PSoC4/Sensor_ADC.c ****                 ,(uint8)(Sensor_ADC_cy_psoc4_sarmux_8__CH_2_PORT << 4u) |
 109:.\Generated_Source\PSoC4/Sensor_ADC.c ****                  (uint8)Sensor_ADC_cy_psoc4_sarmux_8__CH_2_PIN
 110:.\Generated_Source\PSoC4/Sensor_ADC.c ****             #endif /* End Sensor_ADC_TOTAL_CHANNELS_NUM > 2u */
 111:.\Generated_Source\PSoC4/Sensor_ADC.c ****             #if(Sensor_ADC_TOTAL_CHANNELS_NUM > 3u)
 112:.\Generated_Source\PSoC4/Sensor_ADC.c ****                 ,(uint8)(Sensor_ADC_cy_psoc4_sarmux_8__CH_3_PORT << 4u) |
 113:.\Generated_Source\PSoC4/Sensor_ADC.c ****                  (uint8)Sensor_ADC_cy_psoc4_sarmux_8__CH_3_PIN
 114:.\Generated_Source\PSoC4/Sensor_ADC.c ****             #endif /* End Sensor_ADC_TOTAL_CHANNELS_NUM > 3u */
 115:.\Generated_Source\PSoC4/Sensor_ADC.c ****             #if(Sensor_ADC_TOTAL_CHANNELS_NUM > 4u)
 116:.\Generated_Source\PSoC4/Sensor_ADC.c ****                 ,(uint8)(Sensor_ADC_cy_psoc4_sarmux_8__CH_4_PORT << 4u) |
 117:.\Generated_Source\PSoC4/Sensor_ADC.c ****                  (uint8)Sensor_ADC_cy_psoc4_sarmux_8__CH_4_PIN
 118:.\Generated_Source\PSoC4/Sensor_ADC.c ****             #endif /* End Sensor_ADC_TOTAL_CHANNELS_NUM > 4u */
 119:.\Generated_Source\PSoC4/Sensor_ADC.c ****             #if(Sensor_ADC_TOTAL_CHANNELS_NUM > 5u)
 120:.\Generated_Source\PSoC4/Sensor_ADC.c ****                 ,(uint8)(Sensor_ADC_cy_psoc4_sarmux_8__CH_5_PORT << 4u) |
 121:.\Generated_Source\PSoC4/Sensor_ADC.c ****                  (uint8)Sensor_ADC_cy_psoc4_sarmux_8__CH_5_PIN
 122:.\Generated_Source\PSoC4/Sensor_ADC.c ****             #endif /* End Sensor_ADC_TOTAL_CHANNELS_NUM > 5u */
 123:.\Generated_Source\PSoC4/Sensor_ADC.c ****             #if(Sensor_ADC_TOTAL_CHANNELS_NUM > 6u)
 124:.\Generated_Source\PSoC4/Sensor_ADC.c ****                 ,(uint8)(Sensor_ADC_cy_psoc4_sarmux_8__CH_6_PORT << 4u) |
 125:.\Generated_Source\PSoC4/Sensor_ADC.c ****                  (uint8)Sensor_ADC_cy_psoc4_sarmux_8__CH_6_PIN
 126:.\Generated_Source\PSoC4/Sensor_ADC.c ****             #endif /* End Sensor_ADC_TOTAL_CHANNELS_NUM > 6u */
 127:.\Generated_Source\PSoC4/Sensor_ADC.c ****             #if(Sensor_ADC_TOTAL_CHANNELS_NUM > 7u)
 128:.\Generated_Source\PSoC4/Sensor_ADC.c ****                 ,(uint8)(Sensor_ADC_cy_psoc4_sarmux_8__CH_7_PORT << 4u) |
 129:.\Generated_Source\PSoC4/Sensor_ADC.c ****                  (uint8)Sensor_ADC_cy_psoc4_sarmux_8__CH_7_PIN
 130:.\Generated_Source\PSoC4/Sensor_ADC.c ****             #endif /* End Sensor_ADC_TOTAL_CHANNELS_NUM > 7u */
 131:.\Generated_Source\PSoC4/Sensor_ADC.c ****             #if(Sensor_ADC_TOTAL_CHANNELS_NUM > 8u)
 132:.\Generated_Source\PSoC4/Sensor_ADC.c ****                 ,(uint8)(Sensor_ADC_cy_psoc4_sarmux_8__CH_8_PORT << 4u) |
 133:.\Generated_Source\PSoC4/Sensor_ADC.c ****                  (uint8)Sensor_ADC_cy_psoc4_sarmux_8__CH_8_PIN
 134:.\Generated_Source\PSoC4/Sensor_ADC.c ****             #endif /* End Sensor_ADC_TOTAL_CHANNELS_NUM > 8u */
ARM GAS  C:\Users\jsing\AppData\Local\Temp\ccIpowyF.s 			page 5


 135:.\Generated_Source\PSoC4/Sensor_ADC.c ****         };
 136:.\Generated_Source\PSoC4/Sensor_ADC.c ****     #endif /* End Sensor_ADC_TOTAL_CHANNELS_NUM > 1u */
 137:.\Generated_Source\PSoC4/Sensor_ADC.c **** 
 138:.\Generated_Source\PSoC4/Sensor_ADC.c ****     #if(Sensor_ADC_IRQ_REMOVE == 0u)
 139:.\Generated_Source\PSoC4/Sensor_ADC.c ****         /* Start and set interrupt vector */
 140:.\Generated_Source\PSoC4/Sensor_ADC.c ****         CyIntSetPriority(Sensor_ADC_INTC_NUMBER, Sensor_ADC_INTC_PRIOR_NUMBER);
  95              		.loc 1 140 0
  96 0006 0F20     		mov	r0, #15
  97 0008 0321     		mov	r1, #3
  98 000a FFF7FEFF 		bl	CyIntSetPriority
 141:.\Generated_Source\PSoC4/Sensor_ADC.c ****         (void)CyIntSetVector(Sensor_ADC_INTC_NUMBER, &Sensor_ADC_ISR);
  99              		.loc 1 141 0
 100 000e 644B     		ldr	r3, .L17
 101 0010 0F20     		mov	r0, #15
 102 0012 191C     		mov	r1, r3
 103 0014 FFF7FEFF 		bl	CyIntSetVector
 142:.\Generated_Source\PSoC4/Sensor_ADC.c ****     #endif   /* End Sensor_ADC_IRQ_REMOVE */
 143:.\Generated_Source\PSoC4/Sensor_ADC.c **** 
 144:.\Generated_Source\PSoC4/Sensor_ADC.c ****     /* Init SAR and MUX registers */
 145:.\Generated_Source\PSoC4/Sensor_ADC.c ****     Sensor_ADC_SAR_CHAN_EN_REG = Sensor_ADC_DEFAULT_EN_CHANNELS;
 104              		.loc 1 145 0
 105 0018 624B     		ldr	r3, .L17+4
 106 001a 0722     		mov	r2, #7
 107 001c 1A60     		str	r2, [r3]
 146:.\Generated_Source\PSoC4/Sensor_ADC.c ****     Sensor_ADC_SAR_CTRL_REG |= Sensor_ADC_DEFAULT_CTRL_REG_CFG | 
 108              		.loc 1 146 0
 109 001e 624B     		ldr	r3, .L17+8
 110 0020 614A     		ldr	r2, .L17+8
 111 0022 1168     		ldr	r1, [r2]
 147:.\Generated_Source\PSoC4/Sensor_ADC.c ****         /* Enable the SAR internal pump when global pump is enabled */
 148:.\Generated_Source\PSoC4/Sensor_ADC.c ****         (((Sensor_ADC_PUMP_CTRL_REG & Sensor_ADC_PUMP_CTRL_ENABLED) != 0u) ? 
 112              		.loc 1 148 0
 113 0024 614A     		ldr	r2, .L17+12
 114 0026 1268     		ldr	r2, [r2]
 146:.\Generated_Source\PSoC4/Sensor_ADC.c ****     Sensor_ADC_SAR_CTRL_REG |= Sensor_ADC_DEFAULT_CTRL_REG_CFG | 
 115              		.loc 1 146 0
 116 0028 002A     		cmp	r2, #0
 117 002a 01DA     		bge	.L6
 146:.\Generated_Source\PSoC4/Sensor_ADC.c ****     Sensor_ADC_SAR_CTRL_REG |= Sensor_ADC_DEFAULT_CTRL_REG_CFG | 
 118              		.loc 1 146 0 is_stmt 0 discriminator 1
 119 002c 604A     		ldr	r2, .L17+16
 120 002e 00E0     		b	.L7
 121              	.L6:
 146:.\Generated_Source\PSoC4/Sensor_ADC.c ****     Sensor_ADC_SAR_CTRL_REG |= Sensor_ADC_DEFAULT_CTRL_REG_CFG | 
 122              		.loc 1 146 0 discriminator 2
 123 0030 604A     		ldr	r2, .L17+20
 124              	.L7:
 146:.\Generated_Source\PSoC4/Sensor_ADC.c ****     Sensor_ADC_SAR_CTRL_REG |= Sensor_ADC_DEFAULT_CTRL_REG_CFG | 
 125              		.loc 1 146 0 discriminator 3
 126 0032 0A43     		orr	r2, r1
 127 0034 1A60     		str	r2, [r3]
 149:.\Generated_Source\PSoC4/Sensor_ADC.c ****         Sensor_ADC_BOOSTPUMP_EN : 0u);
 150:.\Generated_Source\PSoC4/Sensor_ADC.c ****     Sensor_ADC_SAR_SAMPLE_CTRL_REG = Sensor_ADC_DEFAULT_SAMPLE_CTRL_REG_CFG;
 128              		.loc 1 150 0 is_stmt 1 discriminator 3
 129 0036 604B     		ldr	r3, .L17+24
 130 0038 604A     		ldr	r2, .L17+28
 131 003a 1A60     		str	r2, [r3]
ARM GAS  C:\Users\jsing\AppData\Local\Temp\ccIpowyF.s 			page 6


 151:.\Generated_Source\PSoC4/Sensor_ADC.c ****     Sensor_ADC_SAR_RANGE_THRES_REG = Sensor_ADC_DEFAULT_RANGE_THRES_REG_CFG;
 132              		.loc 1 151 0 discriminator 3
 133 003c 604B     		ldr	r3, .L17+32
 134 003e 614A     		ldr	r2, .L17+36
 135 0040 1A60     		str	r2, [r3]
 152:.\Generated_Source\PSoC4/Sensor_ADC.c ****     Sensor_ADC_SAR_RANGE_COND_REG  = Sensor_ADC_COMPARE_MODE;
 136              		.loc 1 152 0 discriminator 3
 137 0042 614B     		ldr	r3, .L17+40
 138 0044 0022     		mov	r2, #0
 139 0046 1A60     		str	r2, [r3]
 153:.\Generated_Source\PSoC4/Sensor_ADC.c ****     Sensor_ADC_SAR_SAMPLE_TIME01_REG = Sensor_ADC_DEFAULT_SAMPLE_TIME01_REG_CFG;
 140              		.loc 1 153 0 discriminator 3
 141 0048 604B     		ldr	r3, .L17+44
 142 004a 614A     		ldr	r2, .L17+48
 143 004c 1A60     		str	r2, [r3]
 154:.\Generated_Source\PSoC4/Sensor_ADC.c ****     Sensor_ADC_SAR_SAMPLE_TIME23_REG = Sensor_ADC_DEFAULT_SAMPLE_TIME23_REG_CFG;
 144              		.loc 1 154 0 discriminator 3
 145 004e 614B     		ldr	r3, .L17+52
 146 0050 5F4A     		ldr	r2, .L17+48
 147 0052 1A60     		str	r2, [r3]
 155:.\Generated_Source\PSoC4/Sensor_ADC.c ****     
 156:.\Generated_Source\PSoC4/Sensor_ADC.c ****     /* Connect Vm to VSSA when even one channel is single-ended or multiple channels configured */
 157:.\Generated_Source\PSoC4/Sensor_ADC.c ****     #if(Sensor_ADC_DEFAULT_MUX_SWITCH0 != 0u)
 158:.\Generated_Source\PSoC4/Sensor_ADC.c ****         Sensor_ADC_MUX_SWITCH0_REG |= Sensor_ADC_DEFAULT_MUX_SWITCH0;
 148              		.loc 1 158 0 discriminator 3
 149 0054 604B     		ldr	r3, .L17+56
 150 0056 604A     		ldr	r2, .L17+56
 151 0058 1268     		ldr	r2, [r2]
 152 005a 8021     		mov	r1, #128
 153 005c 4902     		lsl	r1, r1, #9
 154 005e 0A43     		orr	r2, r1
 155 0060 1A60     		str	r2, [r3]
 159:.\Generated_Source\PSoC4/Sensor_ADC.c ****         /* Set MUX_HW_CTRL_VSSA in MUX_SWITCH_HW_CTRL when multiple channels enabled */
 160:.\Generated_Source\PSoC4/Sensor_ADC.c ****         #if(Sensor_ADC_TOTAL_CHANNELS_NUM > 1u)
 161:.\Generated_Source\PSoC4/Sensor_ADC.c ****             Sensor_ADC_MUX_SWITCH_HW_CTRL_REG |= Sensor_ADC_DEFAULT_MUX_SWITCH0;
 156              		.loc 1 161 0 discriminator 3
 157 0062 5E4B     		ldr	r3, .L17+60
 158 0064 5D4A     		ldr	r2, .L17+60
 159 0066 1268     		ldr	r2, [r2]
 160 0068 8021     		mov	r1, #128
 161 006a 4902     		lsl	r1, r1, #9
 162 006c 0A43     		orr	r2, r1
 163 006e 1A60     		str	r2, [r3]
 162:.\Generated_Source\PSoC4/Sensor_ADC.c ****         #endif /* Sensor_ADC_TOTAL_CHANNELS_NUM > 1u */
 163:.\Generated_Source\PSoC4/Sensor_ADC.c ****     #endif /*Sensor_ADC_CHANNELS_MODE !=0 */
 164:.\Generated_Source\PSoC4/Sensor_ADC.c **** 
 165:.\Generated_Source\PSoC4/Sensor_ADC.c ****     Sensor_ADC_SAR_SATURATE_INTR_MASK_REG = 0u;
 164              		.loc 1 165 0 discriminator 3
 165 0070 5B4B     		ldr	r3, .L17+64
 166 0072 0022     		mov	r2, #0
 167 0074 1A60     		str	r2, [r3]
 166:.\Generated_Source\PSoC4/Sensor_ADC.c ****     Sensor_ADC_SAR_RANGE_INTR_MASK_REG = 0u;
 168              		.loc 1 166 0 discriminator 3
 169 0076 5B4B     		ldr	r3, .L17+68
 170 0078 0022     		mov	r2, #0
 171 007a 1A60     		str	r2, [r3]
 167:.\Generated_Source\PSoC4/Sensor_ADC.c ****     Sensor_ADC_SAR_INTR_MASK_REG = Sensor_ADC_SAR_INTR_MASK;
ARM GAS  C:\Users\jsing\AppData\Local\Temp\ccIpowyF.s 			page 7


 172              		.loc 1 167 0 discriminator 3
 173 007c 5A4B     		ldr	r3, .L17+72
 174 007e 0122     		mov	r2, #1
 175 0080 1A60     		str	r2, [r3]
 168:.\Generated_Source\PSoC4/Sensor_ADC.c **** 
 169:.\Generated_Source\PSoC4/Sensor_ADC.c ****     #if(Sensor_ADC_CY_SAR_IP_VER == Sensor_ADC_CY_SAR_IP_PSOC4)
 170:.\Generated_Source\PSoC4/Sensor_ADC.c ****         Sensor_ADC_ANA_TRIM_REG = Sensor_ADC_TRIM_COEF;
 171:.\Generated_Source\PSoC4/Sensor_ADC.c ****     #endif /* (Sensor_ADC_CY_SAR_IP_VER == Sensor_ADC_CY_SAR_IP_PSOC4) */
 172:.\Generated_Source\PSoC4/Sensor_ADC.c **** 
 173:.\Generated_Source\PSoC4/Sensor_ADC.c ****     /* Read and modify default configuration based on characterization */
 174:.\Generated_Source\PSoC4/Sensor_ADC.c ****     tmpRegVal = Sensor_ADC_SAR_DFT_CTRL_REG;
 176              		.loc 1 174 0 discriminator 3
 177 0082 5A4B     		ldr	r3, .L17+76
 178 0084 1B68     		ldr	r3, [r3]
 179 0086 7B60     		str	r3, [r7, #4]
 175:.\Generated_Source\PSoC4/Sensor_ADC.c ****     tmpRegVal &= (uint32)~Sensor_ADC_DCEN;
 180              		.loc 1 175 0 discriminator 3
 181 0088 7A68     		ldr	r2, [r7, #4]
 182 008a 594B     		ldr	r3, .L17+80
 183 008c 1340     		and	r3, r2
 184 008e 7B60     		str	r3, [r7, #4]
 176:.\Generated_Source\PSoC4/Sensor_ADC.c ****     
 177:.\Generated_Source\PSoC4/Sensor_ADC.c ****     #if(Sensor_ADC_CY_SAR_IP_VER == Sensor_ADC_CY_SAR_IP_PSOC4)
 178:.\Generated_Source\PSoC4/Sensor_ADC.c ****         #if(Sensor_ADC_NOMINAL_CLOCK_FREQ > (Sensor_ADC_MAX_FREQUENCY / 2))
 179:.\Generated_Source\PSoC4/Sensor_ADC.c ****             tmpRegVal |= Sensor_ADC_SEL_CSEL_DFT_CHAR;
 180:.\Generated_Source\PSoC4/Sensor_ADC.c ****         #else  /* clock speed < 9 Mhz */
 181:.\Generated_Source\PSoC4/Sensor_ADC.c ****             tmpRegVal |= Sensor_ADC_DLY_INC;
 182:.\Generated_Source\PSoC4/Sensor_ADC.c ****         #endif /* clock speed > 9 Mhz */
 183:.\Generated_Source\PSoC4/Sensor_ADC.c ****     #else
 184:.\Generated_Source\PSoC4/Sensor_ADC.c ****         #if ((Sensor_ADC_DEFAULT_VREF_SEL == Sensor_ADC__INTERNAL1024) || \
 185:.\Generated_Source\PSoC4/Sensor_ADC.c ****              (Sensor_ADC_DEFAULT_VREF_SEL == Sensor_ADC__INTERNALVREF))
 186:.\Generated_Source\PSoC4/Sensor_ADC.c ****             tmpRegVal |= Sensor_ADC_DLY_INC;
 187:.\Generated_Source\PSoC4/Sensor_ADC.c ****         #else
 188:.\Generated_Source\PSoC4/Sensor_ADC.c ****             tmpRegVal |= Sensor_ADC_DCEN;
 185              		.loc 1 188 0 discriminator 3
 186 0090 7B68     		ldr	r3, [r7, #4]
 187 0092 8022     		mov	r2, #128
 188 0094 9205     		lsl	r2, r2, #22
 189 0096 1343     		orr	r3, r2
 190 0098 7B60     		str	r3, [r7, #4]
 189:.\Generated_Source\PSoC4/Sensor_ADC.c ****             tmpRegVal &= (uint32)~Sensor_ADC_DLY_INC;
 191              		.loc 1 189 0 discriminator 3
 192 009a 7B68     		ldr	r3, [r7, #4]
 193 009c 0122     		mov	r2, #1
 194 009e 9343     		bic	r3, r2
 195 00a0 7B60     		str	r3, [r7, #4]
 190:.\Generated_Source\PSoC4/Sensor_ADC.c ****         #endif /* ((Sensor_ADC_DEFAULT_VREF_SEL == Sensor_ADC__INTERNAL1024) || \
 191:.\Generated_Source\PSoC4/Sensor_ADC.c ****                    (Sensor_ADC_DEFAULT_VREF_SEL == Sensor_ADC__INTERNALVREF)) */
 192:.\Generated_Source\PSoC4/Sensor_ADC.c ****     #endif /* (Sensor_ADC_CY_SAR_IP_VER == Sensor_ADC_CY_SAR_IP_PSOC4) */
 193:.\Generated_Source\PSoC4/Sensor_ADC.c ****     
 194:.\Generated_Source\PSoC4/Sensor_ADC.c ****     Sensor_ADC_SAR_DFT_CTRL_REG = tmpRegVal;
 196              		.loc 1 194 0 discriminator 3
 197 00a2 524B     		ldr	r3, .L17+76
 198 00a4 7A68     		ldr	r2, [r7, #4]
 199 00a6 1A60     		str	r2, [r3]
 195:.\Generated_Source\PSoC4/Sensor_ADC.c **** 
 196:.\Generated_Source\PSoC4/Sensor_ADC.c ****     #if(Sensor_ADC_MAX_RESOLUTION != Sensor_ADC_RESOLUTION_12)
ARM GAS  C:\Users\jsing\AppData\Local\Temp\ccIpowyF.s 			page 8


 197:.\Generated_Source\PSoC4/Sensor_ADC.c ****         Sensor_ADC_WOUNDING_REG = Sensor_ADC_ALT_WOUNDING;
 198:.\Generated_Source\PSoC4/Sensor_ADC.c ****     #endif /* Sensor_ADC_MAX_RESOLUTION != Sensor_ADC_RESOLUTION_12 */
 199:.\Generated_Source\PSoC4/Sensor_ADC.c **** 
 200:.\Generated_Source\PSoC4/Sensor_ADC.c ****     for(chNum = 0u; chNum < Sensor_ADC_TOTAL_CHANNELS_NUM; chNum++)
 200              		.loc 1 200 0 discriminator 3
 201 00a8 0023     		mov	r3, #0
 202 00aa FB60     		str	r3, [r7, #12]
 203 00ac 72E0     		b	.L8
 204              	.L16:
 201:.\Generated_Source\PSoC4/Sensor_ADC.c ****     {
 202:.\Generated_Source\PSoC4/Sensor_ADC.c ****         tmpRegVal = (Sensor_ADC_channelsConfig[chNum] & Sensor_ADC_CHANNEL_CONFIG_MASK);
 205              		.loc 1 202 0
 206 00ae 514B     		ldr	r3, .L17+84
 207 00b0 FA68     		ldr	r2, [r7, #12]
 208 00b2 9200     		lsl	r2, r2, #2
 209 00b4 D258     		ldr	r2, [r2, r3]
 210 00b6 DC23     		mov	r3, #220
 211 00b8 9B01     		lsl	r3, r3, #6
 212 00ba 1340     		and	r3, r2
 213 00bc 7B60     		str	r3, [r7, #4]
 203:.\Generated_Source\PSoC4/Sensor_ADC.c ****         #if(Sensor_ADC_TOTAL_CHANNELS_NUM > 1u)
 204:.\Generated_Source\PSoC4/Sensor_ADC.c ****             tmpRegVal |= Sensor_ADC_InputsPlacement[chNum];
 214              		.loc 1 204 0
 215 00be 4E4A     		ldr	r2, .L17+88
 216 00c0 FB68     		ldr	r3, [r7, #12]
 217 00c2 D318     		add	r3, r2, r3
 218 00c4 1B78     		ldrb	r3, [r3]
 219 00c6 7A68     		ldr	r2, [r7, #4]
 220 00c8 1343     		orr	r3, r2
 221 00ca 7B60     		str	r3, [r7, #4]
 205:.\Generated_Source\PSoC4/Sensor_ADC.c ****         #endif /* End Sensor_ADC_TOTAL_CHANNELS_NUM > 1u */
 206:.\Generated_Source\PSoC4/Sensor_ADC.c ****         
 207:.\Generated_Source\PSoC4/Sensor_ADC.c ****         
 208:.\Generated_Source\PSoC4/Sensor_ADC.c ****         /* When the part is limited to 10-bit then the SUB_RESOLUTION bit
 209:.\Generated_Source\PSoC4/Sensor_ADC.c ****         *  will be ignored and the RESOLUTION bit selects between 10-bit
 210:.\Generated_Source\PSoC4/Sensor_ADC.c ****         *  (0) and 8-bit (1) resolution.
 211:.\Generated_Source\PSoC4/Sensor_ADC.c ****         */
 212:.\Generated_Source\PSoC4/Sensor_ADC.c ****         #if((Sensor_ADC_MAX_RESOLUTION != Sensor_ADC_RESOLUTION_12) && \
 213:.\Generated_Source\PSoC4/Sensor_ADC.c ****             (Sensor_ADC_ALT_WOUNDING == Sensor_ADC_WOUNDING_10BIT))
 214:.\Generated_Source\PSoC4/Sensor_ADC.c ****             tmpRegVal &= (uint32)(~Sensor_ADC_ALT_RESOLUTION_ON);
 215:.\Generated_Source\PSoC4/Sensor_ADC.c ****         #endif /* Sensor_ADC_MAX_RESOLUTION != Sensor_ADC_RESOLUTION_12 */
 216:.\Generated_Source\PSoC4/Sensor_ADC.c **** 
 217:.\Generated_Source\PSoC4/Sensor_ADC.c ****         #if(Sensor_ADC_INJ_CHANNEL_ENABLED)
 218:.\Generated_Source\PSoC4/Sensor_ADC.c ****         if(chNum < Sensor_ADC_SEQUENCED_CHANNELS_NUM)
 219:.\Generated_Source\PSoC4/Sensor_ADC.c ****         #endif /* Sensor_ADC_INJ_CHANNEL_ENABLED */
 220:.\Generated_Source\PSoC4/Sensor_ADC.c ****         {
 221:.\Generated_Source\PSoC4/Sensor_ADC.c ****             CY_SET_REG32((reg32 *)(Sensor_ADC_SAR_CHAN_CONFIG_IND + (uint32)(chNum << 2)), tmpRegVa
 222              		.loc 1 221 0
 223 00cc FB68     		ldr	r3, [r7, #12]
 224 00ce 9B00     		lsl	r3, r3, #2
 225 00d0 4A4A     		ldr	r2, .L17+92
 226 00d2 9B18     		add	r3, r3, r2
 227 00d4 7A68     		ldr	r2, [r7, #4]
 228 00d6 1A60     		str	r2, [r3]
 222:.\Generated_Source\PSoC4/Sensor_ADC.c **** 
 223:.\Generated_Source\PSoC4/Sensor_ADC.c ****             if((Sensor_ADC_channelsConfig[chNum] & Sensor_ADC_IS_SATURATE_EN_MASK) != 0u)
 229              		.loc 1 223 0
ARM GAS  C:\Users\jsing\AppData\Local\Temp\ccIpowyF.s 			page 9


 230 00d8 464B     		ldr	r3, .L17+84
 231 00da FA68     		ldr	r2, [r7, #12]
 232 00dc 9200     		lsl	r2, r2, #2
 233 00de D258     		ldr	r2, [r2, r3]
 234 00e0 0123     		mov	r3, #1
 235 00e2 1340     		and	r3, r2
 236 00e4 0AD0     		beq	.L9
 224:.\Generated_Source\PSoC4/Sensor_ADC.c ****             {
 225:.\Generated_Source\PSoC4/Sensor_ADC.c ****                 Sensor_ADC_SAR_SATURATE_INTR_MASK_REG |= (uint16)((uint16)1 << chNum);
 237              		.loc 1 225 0
 238 00e6 3E4B     		ldr	r3, .L17+64
 239 00e8 3D4A     		ldr	r2, .L17+64
 240 00ea 1168     		ldr	r1, [r2]
 241 00ec FA68     		ldr	r2, [r7, #12]
 242 00ee 0120     		mov	r0, #1
 243 00f0 041C     		mov	r4, r0
 244 00f2 9440     		lsl	r4, r4, r2
 245 00f4 221C     		mov	r2, r4
 246 00f6 92B2     		uxth	r2, r2
 247 00f8 0A43     		orr	r2, r1
 248 00fa 1A60     		str	r2, [r3]
 249              	.L9:
 226:.\Generated_Source\PSoC4/Sensor_ADC.c ****             }
 227:.\Generated_Source\PSoC4/Sensor_ADC.c **** 
 228:.\Generated_Source\PSoC4/Sensor_ADC.c ****             if((Sensor_ADC_channelsConfig[chNum] & Sensor_ADC_IS_RANGE_CTRL_EN_MASK) != 0u)
 250              		.loc 1 228 0
 251 00fc 3D4B     		ldr	r3, .L17+84
 252 00fe FA68     		ldr	r2, [r7, #12]
 253 0100 9200     		lsl	r2, r2, #2
 254 0102 D258     		ldr	r2, [r2, r3]
 255 0104 0223     		mov	r3, #2
 256 0106 1340     		and	r3, r2
 257 0108 0AD0     		beq	.L10
 229:.\Generated_Source\PSoC4/Sensor_ADC.c ****             {
 230:.\Generated_Source\PSoC4/Sensor_ADC.c ****                 Sensor_ADC_SAR_RANGE_INTR_MASK_REG |= (uint16)((uint16)1 << chNum);
 258              		.loc 1 230 0
 259 010a 364B     		ldr	r3, .L17+68
 260 010c 354A     		ldr	r2, .L17+68
 261 010e 1168     		ldr	r1, [r2]
 262 0110 FA68     		ldr	r2, [r7, #12]
 263 0112 0120     		mov	r0, #1
 264 0114 041C     		mov	r4, r0
 265 0116 9440     		lsl	r4, r4, r2
 266 0118 221C     		mov	r2, r4
 267 011a 92B2     		uxth	r2, r2
 268 011c 0A43     		orr	r2, r1
 269 011e 1A60     		str	r2, [r3]
 270              	.L10:
 231:.\Generated_Source\PSoC4/Sensor_ADC.c ****             }
 232:.\Generated_Source\PSoC4/Sensor_ADC.c ****         }
 233:.\Generated_Source\PSoC4/Sensor_ADC.c ****         #if(Sensor_ADC_INJ_CHANNEL_ENABLED)
 234:.\Generated_Source\PSoC4/Sensor_ADC.c ****             else
 235:.\Generated_Source\PSoC4/Sensor_ADC.c ****             {
 236:.\Generated_Source\PSoC4/Sensor_ADC.c ****                 CY_SET_REG32(Sensor_ADC_SAR_INJ_CHAN_CONFIG_PTR, tmpRegVal | Sensor_ADC_INJ_TAILGAT
 237:.\Generated_Source\PSoC4/Sensor_ADC.c **** 
 238:.\Generated_Source\PSoC4/Sensor_ADC.c ****                 if((Sensor_ADC_channelsConfig[chNum] & Sensor_ADC_IS_SATURATE_EN_MASK) != 0u)
 239:.\Generated_Source\PSoC4/Sensor_ADC.c ****                 {
ARM GAS  C:\Users\jsing\AppData\Local\Temp\ccIpowyF.s 			page 10


 240:.\Generated_Source\PSoC4/Sensor_ADC.c ****                     Sensor_ADC_SAR_INTR_MASK_REG |= Sensor_ADC_INJ_SATURATE_MASK;
 241:.\Generated_Source\PSoC4/Sensor_ADC.c ****                 }
 242:.\Generated_Source\PSoC4/Sensor_ADC.c **** 
 243:.\Generated_Source\PSoC4/Sensor_ADC.c ****                 if((Sensor_ADC_channelsConfig[chNum] & Sensor_ADC_IS_RANGE_CTRL_EN_MASK) != 0u)
 244:.\Generated_Source\PSoC4/Sensor_ADC.c ****                 {
 245:.\Generated_Source\PSoC4/Sensor_ADC.c ****                     Sensor_ADC_SAR_INTR_MASK_REG |= Sensor_ADC_INJ_RANGE_MASK;
 246:.\Generated_Source\PSoC4/Sensor_ADC.c ****                 }
 247:.\Generated_Source\PSoC4/Sensor_ADC.c ****             }
 248:.\Generated_Source\PSoC4/Sensor_ADC.c ****         #endif /* Sensor_ADC_INJ_CHANNEL_ENABLED */
 249:.\Generated_Source\PSoC4/Sensor_ADC.c **** 
 250:.\Generated_Source\PSoC4/Sensor_ADC.c ****         if((Sensor_ADC_channelsConfig[chNum] & Sensor_ADC_ALT_RESOLUTION_ON) != 0u)
 271              		.loc 1 250 0
 272 0120 344B     		ldr	r3, .L17+84
 273 0122 FA68     		ldr	r2, [r7, #12]
 274 0124 9200     		lsl	r2, r2, #2
 275 0126 D258     		ldr	r2, [r2, r3]
 276 0128 8023     		mov	r3, #128
 277 012a 9B00     		lsl	r3, r3, #2
 278 012c 1340     		and	r3, r2
 279 012e 03D0     		beq	.L11
 251:.\Generated_Source\PSoC4/Sensor_ADC.c ****         {
 252:.\Generated_Source\PSoC4/Sensor_ADC.c ****                counts = (int32)Sensor_ADC_DEFAULT_MAX_WRK_ALT;
 280              		.loc 1 252 0
 281 0130 8023     		mov	r3, #128
 282 0132 DB00     		lsl	r3, r3, #3
 283 0134 BB60     		str	r3, [r7, #8]
 284 0136 02E0     		b	.L12
 285              	.L11:
 253:.\Generated_Source\PSoC4/Sensor_ADC.c ****         }
 254:.\Generated_Source\PSoC4/Sensor_ADC.c ****         else
 255:.\Generated_Source\PSoC4/Sensor_ADC.c ****         {
 256:.\Generated_Source\PSoC4/Sensor_ADC.c ****                counts = (int32)Sensor_ADC_SAR_WRK_MAX_12BIT;
 286              		.loc 1 256 0
 287 0138 8023     		mov	r3, #128
 288 013a 5B01     		lsl	r3, r3, #5
 289 013c BB60     		str	r3, [r7, #8]
 290              	.L12:
 257:.\Generated_Source\PSoC4/Sensor_ADC.c ****         }
 258:.\Generated_Source\PSoC4/Sensor_ADC.c **** 
 259:.\Generated_Source\PSoC4/Sensor_ADC.c ****         if((Sensor_ADC_channelsConfig[chNum] & Sensor_ADC_DIFFERENTIAL_EN) == 0u)
 291              		.loc 1 259 0
 292 013e 2D4B     		ldr	r3, .L17+84
 293 0140 FA68     		ldr	r2, [r7, #12]
 294 0142 9200     		lsl	r2, r2, #2
 295 0144 D258     		ldr	r2, [r2, r3]
 296 0146 8023     		mov	r3, #128
 297 0148 5B00     		lsl	r3, r3, #1
 298 014a 1340     		and	r3, r2
 299 014c 05D1     		bne	.L13
 260:.\Generated_Source\PSoC4/Sensor_ADC.c ****         {
 261:.\Generated_Source\PSoC4/Sensor_ADC.c ****             #if((Sensor_ADC_DEFAULT_SE_RESULT_FORMAT_SEL == Sensor_ADC__FSIGNED) && \
 262:.\Generated_Source\PSoC4/Sensor_ADC.c ****                 (Sensor_ADC_DEFAULT_NEG_INPUT_SEL == Sensor_ADC__VREF))
 263:.\Generated_Source\PSoC4/Sensor_ADC.c ****                 /* Set offset to the minus half scale to convert results to unsigned format */
 264:.\Generated_Source\PSoC4/Sensor_ADC.c ****                 Sensor_ADC_offset[chNum] = (int16)(counts / -2);
 265:.\Generated_Source\PSoC4/Sensor_ADC.c ****             #else
 266:.\Generated_Source\PSoC4/Sensor_ADC.c ****                 Sensor_ADC_offset[chNum] = 0;
 300              		.loc 1 266 0
ARM GAS  C:\Users\jsing\AppData\Local\Temp\ccIpowyF.s 			page 11


 301 014e 2C4B     		ldr	r3, .L17+96
 302 0150 FA68     		ldr	r2, [r7, #12]
 303 0152 5200     		lsl	r2, r2, #1
 304 0154 0021     		mov	r1, #0
 305 0156 D152     		strh	r1, [r2, r3]
 306 0158 09E0     		b	.L14
 307              	.L13:
 267:.\Generated_Source\PSoC4/Sensor_ADC.c ****             #endif /* end DEFAULT_SE_RESULT_FORMAT_SEL == Sensor_ADC__FSIGNED */
 268:.\Generated_Source\PSoC4/Sensor_ADC.c ****         }
 269:.\Generated_Source\PSoC4/Sensor_ADC.c ****         else    /* Differential channel */
 270:.\Generated_Source\PSoC4/Sensor_ADC.c ****         {
 271:.\Generated_Source\PSoC4/Sensor_ADC.c ****             #if(Sensor_ADC_DEFAULT_DIFF_RESULT_FORMAT_SEL == Sensor_ADC__FUNSIGNED)
 272:.\Generated_Source\PSoC4/Sensor_ADC.c ****                 /* Set offset to the half scale to convert results to signed format */
 273:.\Generated_Source\PSoC4/Sensor_ADC.c ****                 Sensor_ADC_offset[chNum] = (int16)(counts / 2);
 308              		.loc 1 273 0
 309 015a BB68     		ldr	r3, [r7, #8]
 310 015c 002B     		cmp	r3, #0
 311 015e 00DA     		bge	.L15
 312 0160 0133     		add	r3, r3, #1
 313              	.L15:
 314 0162 5B10     		asr	r3, r3, #1
 315 0164 99B2     		uxth	r1, r3
 316 0166 264B     		ldr	r3, .L17+96
 317 0168 FA68     		ldr	r2, [r7, #12]
 318 016a 5200     		lsl	r2, r2, #1
 319 016c D152     		strh	r1, [r2, r3]
 320              	.L14:
 274:.\Generated_Source\PSoC4/Sensor_ADC.c ****             #else
 275:.\Generated_Source\PSoC4/Sensor_ADC.c ****                 Sensor_ADC_offset[chNum] = 0;
 276:.\Generated_Source\PSoC4/Sensor_ADC.c ****             #endif /* end Sensor_ADC_DEFAULT_DIFF_RESULT_FORMAT_SEL == Sensor_ADC__FUNSIGNED */
 277:.\Generated_Source\PSoC4/Sensor_ADC.c ****         }
 278:.\Generated_Source\PSoC4/Sensor_ADC.c ****         /* Calculate gain in counts per 10 volts with rounding */
 279:.\Generated_Source\PSoC4/Sensor_ADC.c ****         Sensor_ADC_countsPer10Volt[chNum] = (int16)(((counts * Sensor_ADC_10MV_COUNTS) +
 321              		.loc 1 279 0
 322 016e BB68     		ldr	r3, [r7, #8]
 323 0170 244A     		ldr	r2, .L17+100
 324 0172 5343     		mul	r3, r2
 325 0174 244A     		ldr	r2, .L17+104
 326 0176 9B18     		add	r3, r3, r2
 280:.\Generated_Source\PSoC4/Sensor_ADC.c ****                             Sensor_ADC_DEFAULT_VREF_MV_VALUE) / (Sensor_ADC_DEFAULT_VREF_MV_VALUE *
 327              		.loc 1 280 0
 328 0178 181C     		mov	r0, r3
 329 017a 2449     		ldr	r1, .L17+108
 330 017c FFF7FEFF 		bl	__aeabi_idiv
 331 0180 031C     		mov	r3, r0
 279:.\Generated_Source\PSoC4/Sensor_ADC.c ****         Sensor_ADC_countsPer10Volt[chNum] = (int16)(((counts * Sensor_ADC_10MV_COUNTS) +
 332              		.loc 1 279 0
 333 0182 9BB2     		uxth	r3, r3
 334 0184 19B2     		sxth	r1, r3
 335 0186 224B     		ldr	r3, .L17+112
 336 0188 FA68     		ldr	r2, [r7, #12]
 337 018a 9200     		lsl	r2, r2, #2
 338 018c D150     		str	r1, [r2, r3]
 200:.\Generated_Source\PSoC4/Sensor_ADC.c ****     for(chNum = 0u; chNum < Sensor_ADC_TOTAL_CHANNELS_NUM; chNum++)
 339              		.loc 1 200 0
 340 018e FB68     		ldr	r3, [r7, #12]
 341 0190 0133     		add	r3, r3, #1
ARM GAS  C:\Users\jsing\AppData\Local\Temp\ccIpowyF.s 			page 12


 342 0192 FB60     		str	r3, [r7, #12]
 343              	.L8:
 200:.\Generated_Source\PSoC4/Sensor_ADC.c ****     for(chNum = 0u; chNum < Sensor_ADC_TOTAL_CHANNELS_NUM; chNum++)
 344              		.loc 1 200 0 is_stmt 0 discriminator 1
 345 0194 FB68     		ldr	r3, [r7, #12]
 346 0196 022B     		cmp	r3, #2
 347 0198 89D9     		bls	.L16
 281:.\Generated_Source\PSoC4/Sensor_ADC.c ****     }
 282:.\Generated_Source\PSoC4/Sensor_ADC.c **** }
 348              		.loc 1 282 0 is_stmt 1
 349 019a BD46     		mov	sp, r7
 350 019c 05B0     		add	sp, sp, #20
 351              		@ sp needed
 352 019e 90BD     		pop	{r4, r7, pc}
 353              	.L18:
 354              		.align	2
 355              	.L17:
 356 01a0 00000000 		.word	Sensor_ADC_ISR
 357 01a4 20003A40 		.word	1077542944
 358 01a8 00003A40 		.word	1077542912
 359 01ac 80033A40 		.word	1077543808
 360 01b0 70201013 		.word	319823984
 361 01b4 70200013 		.word	318775408
 362 01b8 04003A40 		.word	1077542916
 363 01bc 25000080 		.word	-2147483611
 364 01c0 18003A40 		.word	1077542936
 365 01c4 0000FF07 		.word	134152192
 366 01c8 1C003A40 		.word	1077542940
 367 01cc 10003A40 		.word	1077542928
 368 01d0 08000800 		.word	524296
 369 01d4 14003A40 		.word	1077542932
 370 01d8 00033A40 		.word	1077543680
 371 01dc 40033A40 		.word	1077543744
 372 01e0 28023A40 		.word	1077543464
 373 01e4 38023A40 		.word	1077543480
 374 01e8 18023A40 		.word	1077543448
 375 01ec 30003A40 		.word	1077542960
 376 01f0 FFFFFFDF 		.word	-536870913
 377 01f4 00000000 		.word	Sensor_ADC_channelsConfig
 378 01f8 0C000000 		.word	Sensor_ADC_InputsPlacement.4747
 379 01fc 80003A40 		.word	1077543040
 380 0200 00000000 		.word	Sensor_ADC_offset
 381 0204 10270000 		.word	10000
 382 0208 E40C0000 		.word	3300
 383 020c C8190000 		.word	6600
 384 0210 00000000 		.word	Sensor_ADC_countsPer10Volt
 385              		.cfi_endproc
 386              	.LFE3:
 387              		.size	Sensor_ADC_Init, .-Sensor_ADC_Init
 388              		.section	.text.Sensor_ADC_Enable,"ax",%progbits
 389              		.align	2
 390              		.global	Sensor_ADC_Enable
 391              		.code	16
 392              		.thumb_func
 393              		.type	Sensor_ADC_Enable, %function
 394              	Sensor_ADC_Enable:
 395              	.LFB4:
ARM GAS  C:\Users\jsing\AppData\Local\Temp\ccIpowyF.s 			page 13


 283:.\Generated_Source\PSoC4/Sensor_ADC.c **** 
 284:.\Generated_Source\PSoC4/Sensor_ADC.c **** /*******************************************************************************
 285:.\Generated_Source\PSoC4/Sensor_ADC.c **** * Function Name: ADC_SAR_1_Enable
 286:.\Generated_Source\PSoC4/Sensor_ADC.c **** ********************************************************************************
 287:.\Generated_Source\PSoC4/Sensor_ADC.c **** *
 288:.\Generated_Source\PSoC4/Sensor_ADC.c **** * Summary:
 289:.\Generated_Source\PSoC4/Sensor_ADC.c **** *  Enables the clock and analog power for SAR ADC.
 290:.\Generated_Source\PSoC4/Sensor_ADC.c **** *
 291:.\Generated_Source\PSoC4/Sensor_ADC.c **** * Parameters:
 292:.\Generated_Source\PSoC4/Sensor_ADC.c **** *  None.
 293:.\Generated_Source\PSoC4/Sensor_ADC.c **** *
 294:.\Generated_Source\PSoC4/Sensor_ADC.c **** * Return:
 295:.\Generated_Source\PSoC4/Sensor_ADC.c **** *  None.
 296:.\Generated_Source\PSoC4/Sensor_ADC.c **** *
 297:.\Generated_Source\PSoC4/Sensor_ADC.c **** *******************************************************************************/
 298:.\Generated_Source\PSoC4/Sensor_ADC.c **** void Sensor_ADC_Enable(void)
 299:.\Generated_Source\PSoC4/Sensor_ADC.c **** {
 396              		.loc 1 299 0
 397              		.cfi_startproc
 398 0000 80B5     		push	{r7, lr}
 399              		.cfi_def_cfa_offset 8
 400              		.cfi_offset 7, -8
 401              		.cfi_offset 14, -4
 402 0002 00AF     		add	r7, sp, #0
 403              		.cfi_def_cfa_register 7
 300:.\Generated_Source\PSoC4/Sensor_ADC.c ****     if (0u == (Sensor_ADC_SAR_CTRL_REG & Sensor_ADC_ENABLE))
 404              		.loc 1 300 0
 405 0004 0A4B     		ldr	r3, .L22
 406 0006 1B68     		ldr	r3, [r3]
 407 0008 002B     		cmp	r3, #0
 408 000a 0EDB     		blt	.L19
 301:.\Generated_Source\PSoC4/Sensor_ADC.c ****     {
 302:.\Generated_Source\PSoC4/Sensor_ADC.c ****         #if(Sensor_ADC_CY_SAR_IP_VER != Sensor_ADC_CY_SAR_IP_PSOC4)
 303:.\Generated_Source\PSoC4/Sensor_ADC.c **** 
 304:.\Generated_Source\PSoC4/Sensor_ADC.c ****             while (0u != (Sensor_ADC_SAR_STATUS_REG & Sensor_ADC_STATUS_BUSY))
 409              		.loc 1 304 0
 410 000c C046     		mov	r8, r8
 411              	.L21:
 412              		.loc 1 304 0 is_stmt 0 discriminator 1
 413 000e 094B     		ldr	r3, .L22+4
 414 0010 1B68     		ldr	r3, [r3]
 415 0012 002B     		cmp	r3, #0
 416 0014 FBDB     		blt	.L21
 305:.\Generated_Source\PSoC4/Sensor_ADC.c ****             {
 306:.\Generated_Source\PSoC4/Sensor_ADC.c ****                 /* wait for SAR to go idle for to avoid deadlock */
 307:.\Generated_Source\PSoC4/Sensor_ADC.c ****             }
 308:.\Generated_Source\PSoC4/Sensor_ADC.c ****         #endif /* (Sensor_ADC_CY_SAR_IP_VER != Sensor_ADC_CY_SAR_IP_PSOC4) */
 309:.\Generated_Source\PSoC4/Sensor_ADC.c ****         
 310:.\Generated_Source\PSoC4/Sensor_ADC.c ****         Sensor_ADC_SAR_CTRL_REG |= Sensor_ADC_ENABLE;
 417              		.loc 1 310 0 is_stmt 1
 418 0016 064B     		ldr	r3, .L22
 419 0018 054A     		ldr	r2, .L22
 420 001a 1268     		ldr	r2, [r2]
 421 001c 8021     		mov	r1, #128
 422 001e 0906     		lsl	r1, r1, #24
 423 0020 0A43     		orr	r2, r1
 424 0022 1A60     		str	r2, [r3]
ARM GAS  C:\Users\jsing\AppData\Local\Temp\ccIpowyF.s 			page 14


 311:.\Generated_Source\PSoC4/Sensor_ADC.c ****         
 312:.\Generated_Source\PSoC4/Sensor_ADC.c ****         /* The block is ready to use 10 us after the enable signal is set high. */
 313:.\Generated_Source\PSoC4/Sensor_ADC.c ****         CyDelayUs(Sensor_ADC_10US_DELAY);         
 425              		.loc 1 313 0
 426 0024 0A20     		mov	r0, #10
 427 0026 FFF7FEFF 		bl	CyDelayUs
 428              	.L19:
 314:.\Generated_Source\PSoC4/Sensor_ADC.c ****     }
 315:.\Generated_Source\PSoC4/Sensor_ADC.c **** }
 429              		.loc 1 315 0
 430 002a BD46     		mov	sp, r7
 431              		@ sp needed
 432 002c 80BD     		pop	{r7, pc}
 433              	.L23:
 434 002e C046     		.align	2
 435              	.L22:
 436 0030 00003A40 		.word	1077542912
 437 0034 08023A40 		.word	1077543432
 438              		.cfi_endproc
 439              	.LFE4:
 440              		.size	Sensor_ADC_Enable, .-Sensor_ADC_Enable
 441              		.section	.text.Sensor_ADC_Stop,"ax",%progbits
 442              		.align	2
 443              		.global	Sensor_ADC_Stop
 444              		.code	16
 445              		.thumb_func
 446              		.type	Sensor_ADC_Stop, %function
 447              	Sensor_ADC_Stop:
 448              	.LFB5:
 316:.\Generated_Source\PSoC4/Sensor_ADC.c **** 
 317:.\Generated_Source\PSoC4/Sensor_ADC.c **** 
 318:.\Generated_Source\PSoC4/Sensor_ADC.c **** /*******************************************************************************
 319:.\Generated_Source\PSoC4/Sensor_ADC.c **** * Function Name: Sensor_ADC_Stop
 320:.\Generated_Source\PSoC4/Sensor_ADC.c **** ********************************************************************************
 321:.\Generated_Source\PSoC4/Sensor_ADC.c **** *
 322:.\Generated_Source\PSoC4/Sensor_ADC.c **** * Summary:
 323:.\Generated_Source\PSoC4/Sensor_ADC.c **** *  This function stops ADC conversions and puts the ADC into its lowest power
 324:.\Generated_Source\PSoC4/Sensor_ADC.c **** *  mode.
 325:.\Generated_Source\PSoC4/Sensor_ADC.c **** *
 326:.\Generated_Source\PSoC4/Sensor_ADC.c **** * Parameters:
 327:.\Generated_Source\PSoC4/Sensor_ADC.c **** *  None.
 328:.\Generated_Source\PSoC4/Sensor_ADC.c **** *
 329:.\Generated_Source\PSoC4/Sensor_ADC.c **** * Return:
 330:.\Generated_Source\PSoC4/Sensor_ADC.c **** *  None.
 331:.\Generated_Source\PSoC4/Sensor_ADC.c **** *
 332:.\Generated_Source\PSoC4/Sensor_ADC.c **** *******************************************************************************/
 333:.\Generated_Source\PSoC4/Sensor_ADC.c **** void Sensor_ADC_Stop(void)
 334:.\Generated_Source\PSoC4/Sensor_ADC.c **** {
 449              		.loc 1 334 0
 450              		.cfi_startproc
 451 0000 80B5     		push	{r7, lr}
 452              		.cfi_def_cfa_offset 8
 453              		.cfi_offset 7, -8
 454              		.cfi_offset 14, -4
 455 0002 00AF     		add	r7, sp, #0
 456              		.cfi_def_cfa_register 7
 335:.\Generated_Source\PSoC4/Sensor_ADC.c ****     Sensor_ADC_SAR_CTRL_REG &= (uint32)~Sensor_ADC_ENABLE;
ARM GAS  C:\Users\jsing\AppData\Local\Temp\ccIpowyF.s 			page 15


 457              		.loc 1 335 0
 458 0004 034B     		ldr	r3, .L25
 459 0006 034A     		ldr	r2, .L25
 460 0008 1268     		ldr	r2, [r2]
 461 000a 5200     		lsl	r2, r2, #1
 462 000c 5208     		lsr	r2, r2, #1
 463 000e 1A60     		str	r2, [r3]
 336:.\Generated_Source\PSoC4/Sensor_ADC.c **** }
 464              		.loc 1 336 0
 465 0010 BD46     		mov	sp, r7
 466              		@ sp needed
 467 0012 80BD     		pop	{r7, pc}
 468              	.L26:
 469              		.align	2
 470              	.L25:
 471 0014 00003A40 		.word	1077542912
 472              		.cfi_endproc
 473              	.LFE5:
 474              		.size	Sensor_ADC_Stop, .-Sensor_ADC_Stop
 475              		.section	.text.Sensor_ADC_StartConvert,"ax",%progbits
 476              		.align	2
 477              		.global	Sensor_ADC_StartConvert
 478              		.code	16
 479              		.thumb_func
 480              		.type	Sensor_ADC_StartConvert, %function
 481              	Sensor_ADC_StartConvert:
 482              	.LFB6:
 337:.\Generated_Source\PSoC4/Sensor_ADC.c **** 
 338:.\Generated_Source\PSoC4/Sensor_ADC.c **** 
 339:.\Generated_Source\PSoC4/Sensor_ADC.c **** /*******************************************************************************
 340:.\Generated_Source\PSoC4/Sensor_ADC.c **** * Function Name: Sensor_ADC_StartConvert
 341:.\Generated_Source\PSoC4/Sensor_ADC.c **** ********************************************************************************
 342:.\Generated_Source\PSoC4/Sensor_ADC.c **** *
 343:.\Generated_Source\PSoC4/Sensor_ADC.c **** * Summary:
 344:.\Generated_Source\PSoC4/Sensor_ADC.c **** *  Description:
 345:.\Generated_Source\PSoC4/Sensor_ADC.c **** *  For free running mode, this API starts the conversion process and it
 346:.\Generated_Source\PSoC4/Sensor_ADC.c **** *  runs continuously.
 347:.\Generated_Source\PSoC4/Sensor_ADC.c **** *
 348:.\Generated_Source\PSoC4/Sensor_ADC.c **** *  In a triggered mode, this routine triggers every conversion by
 349:.\Generated_Source\PSoC4/Sensor_ADC.c **** *  writing into the FW_TRIGGER bit in SAR_START_CTRL reg. In triggered mode,
 350:.\Generated_Source\PSoC4/Sensor_ADC.c **** *  every conversion has to start by this API.
 351:.\Generated_Source\PSoC4/Sensor_ADC.c **** *
 352:.\Generated_Source\PSoC4/Sensor_ADC.c **** * Parameters:
 353:.\Generated_Source\PSoC4/Sensor_ADC.c **** *  None.
 354:.\Generated_Source\PSoC4/Sensor_ADC.c **** *
 355:.\Generated_Source\PSoC4/Sensor_ADC.c **** * Return:
 356:.\Generated_Source\PSoC4/Sensor_ADC.c **** *  None.
 357:.\Generated_Source\PSoC4/Sensor_ADC.c **** *
 358:.\Generated_Source\PSoC4/Sensor_ADC.c **** *******************************************************************************/
 359:.\Generated_Source\PSoC4/Sensor_ADC.c **** void Sensor_ADC_StartConvert(void)
 360:.\Generated_Source\PSoC4/Sensor_ADC.c **** {
 483              		.loc 1 360 0
 484              		.cfi_startproc
 485 0000 80B5     		push	{r7, lr}
 486              		.cfi_def_cfa_offset 8
 487              		.cfi_offset 7, -8
 488              		.cfi_offset 14, -4
ARM GAS  C:\Users\jsing\AppData\Local\Temp\ccIpowyF.s 			page 16


 489 0002 00AF     		add	r7, sp, #0
 490              		.cfi_def_cfa_register 7
 361:.\Generated_Source\PSoC4/Sensor_ADC.c ****     #if(Sensor_ADC_DEFAULT_SAMPLE_MODE_SEL == Sensor_ADC__FREERUNNING)
 362:.\Generated_Source\PSoC4/Sensor_ADC.c ****         Sensor_ADC_SAR_SAMPLE_CTRL_REG |= Sensor_ADC_CONTINUOUS_EN;
 491              		.loc 1 362 0
 492 0004 044B     		ldr	r3, .L28
 493 0006 044A     		ldr	r2, .L28
 494 0008 1268     		ldr	r2, [r2]
 495 000a 8021     		mov	r1, #128
 496 000c 4902     		lsl	r1, r1, #9
 497 000e 0A43     		orr	r2, r1
 498 0010 1A60     		str	r2, [r3]
 363:.\Generated_Source\PSoC4/Sensor_ADC.c ****     #else /* Firmware trigger */
 364:.\Generated_Source\PSoC4/Sensor_ADC.c ****         Sensor_ADC_SAR_START_CTRL_REG = Sensor_ADC_FW_TRIGGER;
 365:.\Generated_Source\PSoC4/Sensor_ADC.c ****     #endif /* End Sensor_ADC_DEFAULT_SAMPLE_MODE == Sensor_ADC__FREERUNNING */
 366:.\Generated_Source\PSoC4/Sensor_ADC.c **** 
 367:.\Generated_Source\PSoC4/Sensor_ADC.c **** }
 499              		.loc 1 367 0
 500 0012 BD46     		mov	sp, r7
 501              		@ sp needed
 502 0014 80BD     		pop	{r7, pc}
 503              	.L29:
 504 0016 C046     		.align	2
 505              	.L28:
 506 0018 04003A40 		.word	1077542916
 507              		.cfi_endproc
 508              	.LFE6:
 509              		.size	Sensor_ADC_StartConvert, .-Sensor_ADC_StartConvert
 510              		.section	.text.Sensor_ADC_StopConvert,"ax",%progbits
 511              		.align	2
 512              		.global	Sensor_ADC_StopConvert
 513              		.code	16
 514              		.thumb_func
 515              		.type	Sensor_ADC_StopConvert, %function
 516              	Sensor_ADC_StopConvert:
 517              	.LFB7:
 368:.\Generated_Source\PSoC4/Sensor_ADC.c **** 
 369:.\Generated_Source\PSoC4/Sensor_ADC.c **** 
 370:.\Generated_Source\PSoC4/Sensor_ADC.c **** /*******************************************************************************
 371:.\Generated_Source\PSoC4/Sensor_ADC.c **** * Function Name: Sensor_ADC_StopConvert
 372:.\Generated_Source\PSoC4/Sensor_ADC.c **** ********************************************************************************
 373:.\Generated_Source\PSoC4/Sensor_ADC.c **** *
 374:.\Generated_Source\PSoC4/Sensor_ADC.c **** * Summary:
 375:.\Generated_Source\PSoC4/Sensor_ADC.c **** *  Forces the ADC to stop all conversions.
 376:.\Generated_Source\PSoC4/Sensor_ADC.c **** *
 377:.\Generated_Source\PSoC4/Sensor_ADC.c **** * Parameters:
 378:.\Generated_Source\PSoC4/Sensor_ADC.c **** *  None.
 379:.\Generated_Source\PSoC4/Sensor_ADC.c **** *
 380:.\Generated_Source\PSoC4/Sensor_ADC.c **** * Return:
 381:.\Generated_Source\PSoC4/Sensor_ADC.c **** *  None.
 382:.\Generated_Source\PSoC4/Sensor_ADC.c **** *
 383:.\Generated_Source\PSoC4/Sensor_ADC.c **** *******************************************************************************/
 384:.\Generated_Source\PSoC4/Sensor_ADC.c **** void Sensor_ADC_StopConvert(void)
 385:.\Generated_Source\PSoC4/Sensor_ADC.c **** {
 518              		.loc 1 385 0
 519              		.cfi_startproc
 520 0000 80B5     		push	{r7, lr}
ARM GAS  C:\Users\jsing\AppData\Local\Temp\ccIpowyF.s 			page 17


 521              		.cfi_def_cfa_offset 8
 522              		.cfi_offset 7, -8
 523              		.cfi_offset 14, -4
 524 0002 00AF     		add	r7, sp, #0
 525              		.cfi_def_cfa_register 7
 386:.\Generated_Source\PSoC4/Sensor_ADC.c ****     #if(Sensor_ADC_DEFAULT_SAMPLE_MODE_SEL == Sensor_ADC__FREERUNNING)
 387:.\Generated_Source\PSoC4/Sensor_ADC.c ****         Sensor_ADC_SAR_SAMPLE_CTRL_REG &= (uint32)(~Sensor_ADC_CONTINUOUS_EN);
 526              		.loc 1 387 0
 527 0004 034B     		ldr	r3, .L31
 528 0006 034A     		ldr	r2, .L31
 529 0008 1168     		ldr	r1, [r2]
 530 000a 034A     		ldr	r2, .L31+4
 531 000c 0A40     		and	r2, r1
 532 000e 1A60     		str	r2, [r3]
 388:.\Generated_Source\PSoC4/Sensor_ADC.c ****     #endif /* Sensor_ADC_DEFAULT_SAMPLE_MODE == Sensor_ADC__FREERUNNING */
 389:.\Generated_Source\PSoC4/Sensor_ADC.c **** }
 533              		.loc 1 389 0
 534 0010 BD46     		mov	sp, r7
 535              		@ sp needed
 536 0012 80BD     		pop	{r7, pc}
 537              	.L32:
 538              		.align	2
 539              	.L31:
 540 0014 04003A40 		.word	1077542916
 541 0018 FFFFFEFF 		.word	-65537
 542              		.cfi_endproc
 543              	.LFE7:
 544              		.size	Sensor_ADC_StopConvert, .-Sensor_ADC_StopConvert
 545              		.section	.text.Sensor_ADC_IsEndConversion,"ax",%progbits
 546              		.align	2
 547              		.global	Sensor_ADC_IsEndConversion
 548              		.code	16
 549              		.thumb_func
 550              		.type	Sensor_ADC_IsEndConversion, %function
 551              	Sensor_ADC_IsEndConversion:
 552              	.LFB8:
 390:.\Generated_Source\PSoC4/Sensor_ADC.c **** 
 391:.\Generated_Source\PSoC4/Sensor_ADC.c **** 
 392:.\Generated_Source\PSoC4/Sensor_ADC.c **** /*******************************************************************************
 393:.\Generated_Source\PSoC4/Sensor_ADC.c **** * Function Name: Sensor_ADC_IsEndConversion
 394:.\Generated_Source\PSoC4/Sensor_ADC.c **** ********************************************************************************
 395:.\Generated_Source\PSoC4/Sensor_ADC.c **** *
 396:.\Generated_Source\PSoC4/Sensor_ADC.c **** * Summary:
 397:.\Generated_Source\PSoC4/Sensor_ADC.c **** *  Description: Checks for ADC end of conversion for the case one
 398:.\Generated_Source\PSoC4/Sensor_ADC.c **** *  channel and end of scan for the case of multiple channels. It acts
 399:.\Generated_Source\PSoC4/Sensor_ADC.c **** *  as a software version of the EOC. This function provides the
 400:.\Generated_Source\PSoC4/Sensor_ADC.c **** *  programmer with two options. In one mode this function
 401:.\Generated_Source\PSoC4/Sensor_ADC.c **** *  immediately returns with the conversion status. In the other mode,
 402:.\Generated_Source\PSoC4/Sensor_ADC.c **** *  the function does not return (blocking) until the conversion has
 403:.\Generated_Source\PSoC4/Sensor_ADC.c **** *  completed.
 404:.\Generated_Source\PSoC4/Sensor_ADC.c **** *
 405:.\Generated_Source\PSoC4/Sensor_ADC.c **** * Parameters:
 406:.\Generated_Source\PSoC4/Sensor_ADC.c **** *  ADC_RETURN_STATUS        -> Immediately returns conversion result status
 407:.\Generated_Source\PSoC4/Sensor_ADC.c **** *  ADC_WAIT_FOR_RESULT      -> Does not return until ADC complete
 408:.\Generated_Source\PSoC4/Sensor_ADC.c **** *  ADC_RETURN_STATUS_INJ    -> Immediately returns conversion result status
 409:.\Generated_Source\PSoC4/Sensor_ADC.c **** *                              for injection channel
 410:.\Generated_Source\PSoC4/Sensor_ADC.c **** *  ADC_WAIT_FOR_RESULT_INJ  -> Does not return until ADC completes injection
ARM GAS  C:\Users\jsing\AppData\Local\Temp\ccIpowyF.s 			page 18


 411:.\Generated_Source\PSoC4/Sensor_ADC.c **** *                              channel conversion
 412:.\Generated_Source\PSoC4/Sensor_ADC.c **** *
 413:.\Generated_Source\PSoC4/Sensor_ADC.c **** * Return:
 414:.\Generated_Source\PSoC4/Sensor_ADC.c **** *  If a non-zero value is returned, the last conversion or scan has completed.
 415:.\Generated_Source\PSoC4/Sensor_ADC.c **** *  If the returned value is zero, the ADC is still in the process of a scan.
 416:.\Generated_Source\PSoC4/Sensor_ADC.c **** *
 417:.\Generated_Source\PSoC4/Sensor_ADC.c **** *******************************************************************************/
 418:.\Generated_Source\PSoC4/Sensor_ADC.c **** uint32 Sensor_ADC_IsEndConversion(uint32 retMode)
 419:.\Generated_Source\PSoC4/Sensor_ADC.c **** {
 553              		.loc 1 419 0
 554              		.cfi_startproc
 555 0000 80B5     		push	{r7, lr}
 556              		.cfi_def_cfa_offset 8
 557              		.cfi_offset 7, -8
 558              		.cfi_offset 14, -4
 559 0002 84B0     		sub	sp, sp, #16
 560              		.cfi_def_cfa_offset 24
 561 0004 00AF     		add	r7, sp, #0
 562              		.cfi_def_cfa_register 7
 563 0006 7860     		str	r0, [r7, #4]
 420:.\Generated_Source\PSoC4/Sensor_ADC.c ****     uint32 status = 0u;
 564              		.loc 1 420 0
 565 0008 0023     		mov	r3, #0
 566 000a FB60     		str	r3, [r7, #12]
 421:.\Generated_Source\PSoC4/Sensor_ADC.c **** 
 422:.\Generated_Source\PSoC4/Sensor_ADC.c ****     if((retMode & (Sensor_ADC_RETURN_STATUS | Sensor_ADC_WAIT_FOR_RESULT)) != 0u)
 567              		.loc 1 422 0
 568 000c 7A68     		ldr	r2, [r7, #4]
 569 000e 0323     		mov	r3, #3
 570 0010 1340     		and	r3, r2
 571 0012 11D0     		beq	.L34
 572              	.L36:
 423:.\Generated_Source\PSoC4/Sensor_ADC.c ****     {
 424:.\Generated_Source\PSoC4/Sensor_ADC.c ****         do
 425:.\Generated_Source\PSoC4/Sensor_ADC.c ****         {
 426:.\Generated_Source\PSoC4/Sensor_ADC.c ****             status = Sensor_ADC_SAR_INTR_REG & Sensor_ADC_EOS_MASK;
 573              		.loc 1 426 0 discriminator 1
 574 0014 0B4B     		ldr	r3, .L38
 575 0016 1A68     		ldr	r2, [r3]
 576 0018 0123     		mov	r3, #1
 577 001a 1340     		and	r3, r2
 578 001c FB60     		str	r3, [r7, #12]
 427:.\Generated_Source\PSoC4/Sensor_ADC.c ****         }while((status == 0u) && ((retMode & Sensor_ADC_WAIT_FOR_RESULT) != 0u));
 579              		.loc 1 427 0 discriminator 1
 580 001e FB68     		ldr	r3, [r7, #12]
 581 0020 002B     		cmp	r3, #0
 582 0022 03D1     		bne	.L35
 583 0024 7A68     		ldr	r2, [r7, #4]
 584 0026 0223     		mov	r3, #2
 585 0028 1340     		and	r3, r2
 586 002a F3D1     		bne	.L36
 587              	.L35:
 428:.\Generated_Source\PSoC4/Sensor_ADC.c **** 
 429:.\Generated_Source\PSoC4/Sensor_ADC.c ****         if(status != 0u)
 588              		.loc 1 429 0
 589 002c FB68     		ldr	r3, [r7, #12]
 590 002e 002B     		cmp	r3, #0
ARM GAS  C:\Users\jsing\AppData\Local\Temp\ccIpowyF.s 			page 19


 591 0030 02D0     		beq	.L34
 430:.\Generated_Source\PSoC4/Sensor_ADC.c ****         {
 431:.\Generated_Source\PSoC4/Sensor_ADC.c ****             /* Clear EOS bit */
 432:.\Generated_Source\PSoC4/Sensor_ADC.c ****             Sensor_ADC_SAR_INTR_REG = Sensor_ADC_EOS_MASK;
 592              		.loc 1 432 0
 593 0032 044B     		ldr	r3, .L38
 594 0034 0122     		mov	r2, #1
 595 0036 1A60     		str	r2, [r3]
 596              	.L34:
 433:.\Generated_Source\PSoC4/Sensor_ADC.c ****         }
 434:.\Generated_Source\PSoC4/Sensor_ADC.c ****     }
 435:.\Generated_Source\PSoC4/Sensor_ADC.c **** 
 436:.\Generated_Source\PSoC4/Sensor_ADC.c ****     #if(Sensor_ADC_INJ_CHANNEL_ENABLED)
 437:.\Generated_Source\PSoC4/Sensor_ADC.c ****         if((retMode & (Sensor_ADC_RETURN_STATUS_INJ | Sensor_ADC_WAIT_FOR_RESULT_INJ)) != 0u)
 438:.\Generated_Source\PSoC4/Sensor_ADC.c ****         {
 439:.\Generated_Source\PSoC4/Sensor_ADC.c ****             do
 440:.\Generated_Source\PSoC4/Sensor_ADC.c ****             {
 441:.\Generated_Source\PSoC4/Sensor_ADC.c ****                 status |= Sensor_ADC_SAR_INTR_REG & Sensor_ADC_INJ_EOC_MASK;
 442:.\Generated_Source\PSoC4/Sensor_ADC.c ****             }while(((status & Sensor_ADC_INJ_EOC_MASK) == 0u) &&
 443:.\Generated_Source\PSoC4/Sensor_ADC.c ****                    ((retMode & Sensor_ADC_WAIT_FOR_RESULT_INJ) != 0u));
 444:.\Generated_Source\PSoC4/Sensor_ADC.c **** 
 445:.\Generated_Source\PSoC4/Sensor_ADC.c ****             if((status & Sensor_ADC_INJ_EOC_MASK) != 0u)
 446:.\Generated_Source\PSoC4/Sensor_ADC.c ****             {
 447:.\Generated_Source\PSoC4/Sensor_ADC.c ****                 /* Clear Injection EOS bit */
 448:.\Generated_Source\PSoC4/Sensor_ADC.c ****                 Sensor_ADC_SAR_INTR_REG = Sensor_ADC_INJ_EOC_MASK;
 449:.\Generated_Source\PSoC4/Sensor_ADC.c ****             }
 450:.\Generated_Source\PSoC4/Sensor_ADC.c ****         }
 451:.\Generated_Source\PSoC4/Sensor_ADC.c ****     #endif /* Sensor_ADC_INJ_CHANNEL_ENABLED */
 452:.\Generated_Source\PSoC4/Sensor_ADC.c **** 
 453:.\Generated_Source\PSoC4/Sensor_ADC.c ****     return (status);
 597              		.loc 1 453 0
 598 0038 FB68     		ldr	r3, [r7, #12]
 454:.\Generated_Source\PSoC4/Sensor_ADC.c **** }
 599              		.loc 1 454 0
 600 003a 181C     		mov	r0, r3
 601 003c BD46     		mov	sp, r7
 602 003e 04B0     		add	sp, sp, #16
 603              		@ sp needed
 604 0040 80BD     		pop	{r7, pc}
 605              	.L39:
 606 0042 C046     		.align	2
 607              	.L38:
 608 0044 10023A40 		.word	1077543440
 609              		.cfi_endproc
 610              	.LFE8:
 611              		.size	Sensor_ADC_IsEndConversion, .-Sensor_ADC_IsEndConversion
 612              		.section	.text.Sensor_ADC_GetResult16,"ax",%progbits
 613              		.align	2
 614              		.global	Sensor_ADC_GetResult16
 615              		.code	16
 616              		.thumb_func
 617              		.type	Sensor_ADC_GetResult16, %function
 618              	Sensor_ADC_GetResult16:
 619              	.LFB9:
 455:.\Generated_Source\PSoC4/Sensor_ADC.c **** 
 456:.\Generated_Source\PSoC4/Sensor_ADC.c **** 
 457:.\Generated_Source\PSoC4/Sensor_ADC.c **** /*******************************************************************************
ARM GAS  C:\Users\jsing\AppData\Local\Temp\ccIpowyF.s 			page 20


 458:.\Generated_Source\PSoC4/Sensor_ADC.c **** * Function Name: Sensor_ADC_GetResult16
 459:.\Generated_Source\PSoC4/Sensor_ADC.c **** ********************************************************************************
 460:.\Generated_Source\PSoC4/Sensor_ADC.c **** *
 461:.\Generated_Source\PSoC4/Sensor_ADC.c **** * Summary:
 462:.\Generated_Source\PSoC4/Sensor_ADC.c **** *  Gets the data available in the SAR DATA register.
 463:.\Generated_Source\PSoC4/Sensor_ADC.c **** *
 464:.\Generated_Source\PSoC4/Sensor_ADC.c **** * Parameters:
 465:.\Generated_Source\PSoC4/Sensor_ADC.c **** *  chan: The ADC channel in which to return the result. The first channel
 466:.\Generated_Source\PSoC4/Sensor_ADC.c **** *  is 0 and the injection channel if enabled is the number of valid channels.
 467:.\Generated_Source\PSoC4/Sensor_ADC.c **** *
 468:.\Generated_Source\PSoC4/Sensor_ADC.c **** * Return:
 469:.\Generated_Source\PSoC4/Sensor_ADC.c **** *  Returns converted data as a signed 16-bit integer
 470:.\Generated_Source\PSoC4/Sensor_ADC.c **** *
 471:.\Generated_Source\PSoC4/Sensor_ADC.c **** *******************************************************************************/
 472:.\Generated_Source\PSoC4/Sensor_ADC.c **** int16 Sensor_ADC_GetResult16(uint32 chan)
 473:.\Generated_Source\PSoC4/Sensor_ADC.c **** {
 620              		.loc 1 473 0
 621              		.cfi_startproc
 622 0000 80B5     		push	{r7, lr}
 623              		.cfi_def_cfa_offset 8
 624              		.cfi_offset 7, -8
 625              		.cfi_offset 14, -4
 626 0002 84B0     		sub	sp, sp, #16
 627              		.cfi_def_cfa_offset 24
 628 0004 00AF     		add	r7, sp, #0
 629              		.cfi_def_cfa_register 7
 630 0006 7860     		str	r0, [r7, #4]
 474:.\Generated_Source\PSoC4/Sensor_ADC.c ****     uint32 result;
 475:.\Generated_Source\PSoC4/Sensor_ADC.c **** 
 476:.\Generated_Source\PSoC4/Sensor_ADC.c ****     /* Halt CPU in debug mode if channel is out of valid range */
 477:.\Generated_Source\PSoC4/Sensor_ADC.c ****     CYASSERT(chan < Sensor_ADC_TOTAL_CHANNELS_NUM);
 631              		.loc 1 477 0
 632 0008 7B68     		ldr	r3, [r7, #4]
 633 000a 022B     		cmp	r3, #2
 634 000c 02D9     		bls	.L41
 635              		.loc 1 477 0 is_stmt 0 discriminator 1
 636 000e 0020     		mov	r0, #0
 637 0010 FFF7FEFF 		bl	CyHalt
 638              	.L41:
 478:.\Generated_Source\PSoC4/Sensor_ADC.c **** 
 479:.\Generated_Source\PSoC4/Sensor_ADC.c ****     if(chan < Sensor_ADC_SEQUENCED_CHANNELS_NUM)
 639              		.loc 1 479 0 is_stmt 1
 640 0014 7B68     		ldr	r3, [r7, #4]
 641 0016 022B     		cmp	r3, #2
 642 0018 08D8     		bhi	.L42
 480:.\Generated_Source\PSoC4/Sensor_ADC.c ****     {
 481:.\Generated_Source\PSoC4/Sensor_ADC.c ****         result = CY_GET_REG32((reg32 *)(Sensor_ADC_SAR_CHAN_RESULT_IND + (uint32)(chan << 2u))) &
 643              		.loc 1 481 0
 644 001a 7B68     		ldr	r3, [r7, #4]
 645 001c 9B00     		lsl	r3, r3, #2
 646 001e 084A     		ldr	r2, .L45
 647 0020 9B18     		add	r3, r3, r2
 648 0022 1B68     		ldr	r3, [r3]
 649 0024 1B04     		lsl	r3, r3, #16
 650 0026 1B0C     		lsr	r3, r3, #16
 651 0028 FB60     		str	r3, [r7, #12]
 652 002a 01E0     		b	.L43
ARM GAS  C:\Users\jsing\AppData\Local\Temp\ccIpowyF.s 			page 21


 653              	.L42:
 482:.\Generated_Source\PSoC4/Sensor_ADC.c ****                 Sensor_ADC_RESULT_MASK;
 483:.\Generated_Source\PSoC4/Sensor_ADC.c ****     }
 484:.\Generated_Source\PSoC4/Sensor_ADC.c ****     else
 485:.\Generated_Source\PSoC4/Sensor_ADC.c ****     {
 486:.\Generated_Source\PSoC4/Sensor_ADC.c ****         #if(Sensor_ADC_INJ_CHANNEL_ENABLED)
 487:.\Generated_Source\PSoC4/Sensor_ADC.c ****             result = Sensor_ADC_SAR_INJ_RESULT_REG & Sensor_ADC_RESULT_MASK;
 488:.\Generated_Source\PSoC4/Sensor_ADC.c ****         #else
 489:.\Generated_Source\PSoC4/Sensor_ADC.c ****             result = 0u;
 654              		.loc 1 489 0
 655 002c 0023     		mov	r3, #0
 656 002e FB60     		str	r3, [r7, #12]
 657              	.L43:
 490:.\Generated_Source\PSoC4/Sensor_ADC.c ****         #endif /* Sensor_ADC_INJ_CHANNEL_ENABLED */
 491:.\Generated_Source\PSoC4/Sensor_ADC.c ****     }
 492:.\Generated_Source\PSoC4/Sensor_ADC.c **** 
 493:.\Generated_Source\PSoC4/Sensor_ADC.c ****     return ( (int16)result );
 658              		.loc 1 493 0
 659 0030 FB68     		ldr	r3, [r7, #12]
 660 0032 9BB2     		uxth	r3, r3
 661 0034 1BB2     		sxth	r3, r3
 494:.\Generated_Source\PSoC4/Sensor_ADC.c **** }
 662              		.loc 1 494 0
 663 0036 181C     		mov	r0, r3
 664 0038 BD46     		mov	sp, r7
 665 003a 04B0     		add	sp, sp, #16
 666              		@ sp needed
 667 003c 80BD     		pop	{r7, pc}
 668              	.L46:
 669 003e C046     		.align	2
 670              	.L45:
 671 0040 80013A40 		.word	1077543296
 672              		.cfi_endproc
 673              	.LFE9:
 674              		.size	Sensor_ADC_GetResult16, .-Sensor_ADC_GetResult16
 675              		.section	.text.Sensor_ADC_SetChanMask,"ax",%progbits
 676              		.align	2
 677              		.global	Sensor_ADC_SetChanMask
 678              		.code	16
 679              		.thumb_func
 680              		.type	Sensor_ADC_SetChanMask, %function
 681              	Sensor_ADC_SetChanMask:
 682              	.LFB10:
 495:.\Generated_Source\PSoC4/Sensor_ADC.c **** 
 496:.\Generated_Source\PSoC4/Sensor_ADC.c **** 
 497:.\Generated_Source\PSoC4/Sensor_ADC.c **** /*******************************************************************************
 498:.\Generated_Source\PSoC4/Sensor_ADC.c **** * Function Name: Sensor_ADC_SetChanMask
 499:.\Generated_Source\PSoC4/Sensor_ADC.c **** ********************************************************************************
 500:.\Generated_Source\PSoC4/Sensor_ADC.c **** *
 501:.\Generated_Source\PSoC4/Sensor_ADC.c **** * Summary:
 502:.\Generated_Source\PSoC4/Sensor_ADC.c **** *  Sets the channel enable mask.
 503:.\Generated_Source\PSoC4/Sensor_ADC.c **** *
 504:.\Generated_Source\PSoC4/Sensor_ADC.c **** * Parameters:
 505:.\Generated_Source\PSoC4/Sensor_ADC.c **** *  mask: Sets which channels that will be
 506:.\Generated_Source\PSoC4/Sensor_ADC.c **** *  scanned. Setting bits for channels that do not exist will have no
 507:.\Generated_Source\PSoC4/Sensor_ADC.c **** *  effect. For example, if only 6 channels were enabled, setting a
 508:.\Generated_Source\PSoC4/Sensor_ADC.c **** *  mask of 0x0103 would only enable the last two channels (0 and 1).
ARM GAS  C:\Users\jsing\AppData\Local\Temp\ccIpowyF.s 			page 22


 509:.\Generated_Source\PSoC4/Sensor_ADC.c **** *  This API will not enable the injection channel.
 510:.\Generated_Source\PSoC4/Sensor_ADC.c **** *  Examples: If the component is setup to sequence through 8
 511:.\Generated_Source\PSoC4/Sensor_ADC.c **** *  channels, a mask of 0x000F would enable channels 0, 1, 2, and 3.
 512:.\Generated_Source\PSoC4/Sensor_ADC.c **** *
 513:.\Generated_Source\PSoC4/Sensor_ADC.c **** * Return:
 514:.\Generated_Source\PSoC4/Sensor_ADC.c **** *  None.
 515:.\Generated_Source\PSoC4/Sensor_ADC.c **** *
 516:.\Generated_Source\PSoC4/Sensor_ADC.c **** *******************************************************************************/
 517:.\Generated_Source\PSoC4/Sensor_ADC.c **** void Sensor_ADC_SetChanMask(uint32 mask)
 518:.\Generated_Source\PSoC4/Sensor_ADC.c **** {
 683              		.loc 1 518 0
 684              		.cfi_startproc
 685 0000 80B5     		push	{r7, lr}
 686              		.cfi_def_cfa_offset 8
 687              		.cfi_offset 7, -8
 688              		.cfi_offset 14, -4
 689 0002 82B0     		sub	sp, sp, #8
 690              		.cfi_def_cfa_offset 16
 691 0004 00AF     		add	r7, sp, #0
 692              		.cfi_def_cfa_register 7
 693 0006 7860     		str	r0, [r7, #4]
 519:.\Generated_Source\PSoC4/Sensor_ADC.c ****     Sensor_ADC_SAR_CHAN_EN_REG = mask & Sensor_ADC_MAX_CHANNELS_EN_MASK;
 694              		.loc 1 519 0
 695 0008 034B     		ldr	r3, .L48
 696 000a 7968     		ldr	r1, [r7, #4]
 697 000c 0722     		mov	r2, #7
 698 000e 0A40     		and	r2, r1
 699 0010 1A60     		str	r2, [r3]
 520:.\Generated_Source\PSoC4/Sensor_ADC.c **** }
 700              		.loc 1 520 0
 701 0012 BD46     		mov	sp, r7
 702 0014 02B0     		add	sp, sp, #8
 703              		@ sp needed
 704 0016 80BD     		pop	{r7, pc}
 705              	.L49:
 706              		.align	2
 707              	.L48:
 708 0018 20003A40 		.word	1077542944
 709              		.cfi_endproc
 710              	.LFE10:
 711              		.size	Sensor_ADC_SetChanMask, .-Sensor_ADC_SetChanMask
 712              		.section	.text.Sensor_ADC_SetLowLimit,"ax",%progbits
 713              		.align	2
 714              		.global	Sensor_ADC_SetLowLimit
 715              		.code	16
 716              		.thumb_func
 717              		.type	Sensor_ADC_SetLowLimit, %function
 718              	Sensor_ADC_SetLowLimit:
 719              	.LFB11:
 521:.\Generated_Source\PSoC4/Sensor_ADC.c **** 
 522:.\Generated_Source\PSoC4/Sensor_ADC.c **** #if(Sensor_ADC_INJ_CHANNEL_ENABLED)
 523:.\Generated_Source\PSoC4/Sensor_ADC.c **** 
 524:.\Generated_Source\PSoC4/Sensor_ADC.c **** 
 525:.\Generated_Source\PSoC4/Sensor_ADC.c ****     /*******************************************************************************
 526:.\Generated_Source\PSoC4/Sensor_ADC.c ****     * Function Name: Sensor_ADC_EnableInjection
 527:.\Generated_Source\PSoC4/Sensor_ADC.c ****     ********************************************************************************
 528:.\Generated_Source\PSoC4/Sensor_ADC.c ****     *
ARM GAS  C:\Users\jsing\AppData\Local\Temp\ccIpowyF.s 			page 23


 529:.\Generated_Source\PSoC4/Sensor_ADC.c ****     * Summary:
 530:.\Generated_Source\PSoC4/Sensor_ADC.c ****     *  Enables the injection channel for the next scan only.
 531:.\Generated_Source\PSoC4/Sensor_ADC.c ****     *
 532:.\Generated_Source\PSoC4/Sensor_ADC.c ****     * Parameters:
 533:.\Generated_Source\PSoC4/Sensor_ADC.c ****     *  None.
 534:.\Generated_Source\PSoC4/Sensor_ADC.c ****     *
 535:.\Generated_Source\PSoC4/Sensor_ADC.c ****     * Return:
 536:.\Generated_Source\PSoC4/Sensor_ADC.c ****     *  None.
 537:.\Generated_Source\PSoC4/Sensor_ADC.c ****     *
 538:.\Generated_Source\PSoC4/Sensor_ADC.c ****     *******************************************************************************/
 539:.\Generated_Source\PSoC4/Sensor_ADC.c ****     void Sensor_ADC_EnableInjection(void)
 540:.\Generated_Source\PSoC4/Sensor_ADC.c ****     {
 541:.\Generated_Source\PSoC4/Sensor_ADC.c ****         Sensor_ADC_SAR_INJ_CHAN_CONFIG_REG |= Sensor_ADC_INJ_CHAN_EN;
 542:.\Generated_Source\PSoC4/Sensor_ADC.c ****     }
 543:.\Generated_Source\PSoC4/Sensor_ADC.c **** 
 544:.\Generated_Source\PSoC4/Sensor_ADC.c **** #endif /* Sensor_ADC_INJ_CHANNEL_ENABLED */
 545:.\Generated_Source\PSoC4/Sensor_ADC.c **** 
 546:.\Generated_Source\PSoC4/Sensor_ADC.c **** 
 547:.\Generated_Source\PSoC4/Sensor_ADC.c **** /*******************************************************************************
 548:.\Generated_Source\PSoC4/Sensor_ADC.c **** * Function Name: Sensor_ADC_SetLowLimit
 549:.\Generated_Source\PSoC4/Sensor_ADC.c **** ********************************************************************************
 550:.\Generated_Source\PSoC4/Sensor_ADC.c **** *
 551:.\Generated_Source\PSoC4/Sensor_ADC.c **** * Summary:
 552:.\Generated_Source\PSoC4/Sensor_ADC.c **** *  Sets the low limit parameter for a limit condition.
 553:.\Generated_Source\PSoC4/Sensor_ADC.c **** *
 554:.\Generated_Source\PSoC4/Sensor_ADC.c **** * Parameters:
 555:.\Generated_Source\PSoC4/Sensor_ADC.c **** *  lowLimit: The low limit for a limit condition.
 556:.\Generated_Source\PSoC4/Sensor_ADC.c **** *
 557:.\Generated_Source\PSoC4/Sensor_ADC.c **** * Return:
 558:.\Generated_Source\PSoC4/Sensor_ADC.c **** *  None.
 559:.\Generated_Source\PSoC4/Sensor_ADC.c **** *
 560:.\Generated_Source\PSoC4/Sensor_ADC.c **** *******************************************************************************/
 561:.\Generated_Source\PSoC4/Sensor_ADC.c **** void Sensor_ADC_SetLowLimit(uint32 lowLimit)
 562:.\Generated_Source\PSoC4/Sensor_ADC.c **** {
 720              		.loc 1 562 0
 721              		.cfi_startproc
 722 0000 80B5     		push	{r7, lr}
 723              		.cfi_def_cfa_offset 8
 724              		.cfi_offset 7, -8
 725              		.cfi_offset 14, -4
 726 0002 82B0     		sub	sp, sp, #8
 727              		.cfi_def_cfa_offset 16
 728 0004 00AF     		add	r7, sp, #0
 729              		.cfi_def_cfa_register 7
 730 0006 7860     		str	r0, [r7, #4]
 563:.\Generated_Source\PSoC4/Sensor_ADC.c ****     Sensor_ADC_SAR_RANGE_THRES_REG &= (uint32)(~Sensor_ADC_RANGE_LOW_MASK);
 731              		.loc 1 563 0
 732 0008 084B     		ldr	r3, .L51
 733 000a 084A     		ldr	r2, .L51
 734 000c 1268     		ldr	r2, [r2]
 735 000e 120C     		lsr	r2, r2, #16
 736 0010 1204     		lsl	r2, r2, #16
 737 0012 1A60     		str	r2, [r3]
 564:.\Generated_Source\PSoC4/Sensor_ADC.c ****     Sensor_ADC_SAR_RANGE_THRES_REG |= lowLimit & Sensor_ADC_RANGE_LOW_MASK;
 738              		.loc 1 564 0
 739 0014 054B     		ldr	r3, .L51
 740 0016 054A     		ldr	r2, .L51
ARM GAS  C:\Users\jsing\AppData\Local\Temp\ccIpowyF.s 			page 24


 741 0018 1168     		ldr	r1, [r2]
 742 001a 7A68     		ldr	r2, [r7, #4]
 743 001c 1204     		lsl	r2, r2, #16
 744 001e 120C     		lsr	r2, r2, #16
 745 0020 0A43     		orr	r2, r1
 746 0022 1A60     		str	r2, [r3]
 565:.\Generated_Source\PSoC4/Sensor_ADC.c **** }
 747              		.loc 1 565 0
 748 0024 BD46     		mov	sp, r7
 749 0026 02B0     		add	sp, sp, #8
 750              		@ sp needed
 751 0028 80BD     		pop	{r7, pc}
 752              	.L52:
 753 002a C046     		.align	2
 754              	.L51:
 755 002c 18003A40 		.word	1077542936
 756              		.cfi_endproc
 757              	.LFE11:
 758              		.size	Sensor_ADC_SetLowLimit, .-Sensor_ADC_SetLowLimit
 759              		.section	.text.Sensor_ADC_SetHighLimit,"ax",%progbits
 760              		.align	2
 761              		.global	Sensor_ADC_SetHighLimit
 762              		.code	16
 763              		.thumb_func
 764              		.type	Sensor_ADC_SetHighLimit, %function
 765              	Sensor_ADC_SetHighLimit:
 766              	.LFB12:
 566:.\Generated_Source\PSoC4/Sensor_ADC.c **** 
 567:.\Generated_Source\PSoC4/Sensor_ADC.c **** 
 568:.\Generated_Source\PSoC4/Sensor_ADC.c **** /*******************************************************************************
 569:.\Generated_Source\PSoC4/Sensor_ADC.c **** * Function Name: Sensor_ADC_SetHighLimit
 570:.\Generated_Source\PSoC4/Sensor_ADC.c **** ********************************************************************************
 571:.\Generated_Source\PSoC4/Sensor_ADC.c **** *
 572:.\Generated_Source\PSoC4/Sensor_ADC.c **** * Summary:
 573:.\Generated_Source\PSoC4/Sensor_ADC.c **** *  Sets the low limit parameter for a limit condition.
 574:.\Generated_Source\PSoC4/Sensor_ADC.c **** *
 575:.\Generated_Source\PSoC4/Sensor_ADC.c **** * Parameters:
 576:.\Generated_Source\PSoC4/Sensor_ADC.c **** *  highLimit: The high limit for a limit condition.
 577:.\Generated_Source\PSoC4/Sensor_ADC.c **** *
 578:.\Generated_Source\PSoC4/Sensor_ADC.c **** * Return:
 579:.\Generated_Source\PSoC4/Sensor_ADC.c **** *  None.
 580:.\Generated_Source\PSoC4/Sensor_ADC.c **** *
 581:.\Generated_Source\PSoC4/Sensor_ADC.c **** *******************************************************************************/
 582:.\Generated_Source\PSoC4/Sensor_ADC.c **** void Sensor_ADC_SetHighLimit(uint32 highLimit)
 583:.\Generated_Source\PSoC4/Sensor_ADC.c **** {
 767              		.loc 1 583 0
 768              		.cfi_startproc
 769 0000 80B5     		push	{r7, lr}
 770              		.cfi_def_cfa_offset 8
 771              		.cfi_offset 7, -8
 772              		.cfi_offset 14, -4
 773 0002 82B0     		sub	sp, sp, #8
 774              		.cfi_def_cfa_offset 16
 775 0004 00AF     		add	r7, sp, #0
 776              		.cfi_def_cfa_register 7
 777 0006 7860     		str	r0, [r7, #4]
 584:.\Generated_Source\PSoC4/Sensor_ADC.c ****     Sensor_ADC_SAR_RANGE_THRES_REG &= (uint32)(~Sensor_ADC_RANGE_HIGH_MASK);
ARM GAS  C:\Users\jsing\AppData\Local\Temp\ccIpowyF.s 			page 25


 778              		.loc 1 584 0
 779 0008 074B     		ldr	r3, .L54
 780 000a 074A     		ldr	r2, .L54
 781 000c 1268     		ldr	r2, [r2]
 782 000e 1204     		lsl	r2, r2, #16
 783 0010 120C     		lsr	r2, r2, #16
 784 0012 1A60     		str	r2, [r3]
 585:.\Generated_Source\PSoC4/Sensor_ADC.c ****     Sensor_ADC_SAR_RANGE_THRES_REG |= (uint32)(highLimit << Sensor_ADC_RANGE_HIGH_OFFSET);
 785              		.loc 1 585 0
 786 0014 044B     		ldr	r3, .L54
 787 0016 044A     		ldr	r2, .L54
 788 0018 1168     		ldr	r1, [r2]
 789 001a 7A68     		ldr	r2, [r7, #4]
 790 001c 1204     		lsl	r2, r2, #16
 791 001e 0A43     		orr	r2, r1
 792 0020 1A60     		str	r2, [r3]
 586:.\Generated_Source\PSoC4/Sensor_ADC.c **** }
 793              		.loc 1 586 0
 794 0022 BD46     		mov	sp, r7
 795 0024 02B0     		add	sp, sp, #8
 796              		@ sp needed
 797 0026 80BD     		pop	{r7, pc}
 798              	.L55:
 799              		.align	2
 800              	.L54:
 801 0028 18003A40 		.word	1077542936
 802              		.cfi_endproc
 803              	.LFE12:
 804              		.size	Sensor_ADC_SetHighLimit, .-Sensor_ADC_SetHighLimit
 805              		.section	.text.Sensor_ADC_SetLimitMask,"ax",%progbits
 806              		.align	2
 807              		.global	Sensor_ADC_SetLimitMask
 808              		.code	16
 809              		.thumb_func
 810              		.type	Sensor_ADC_SetLimitMask, %function
 811              	Sensor_ADC_SetLimitMask:
 812              	.LFB13:
 587:.\Generated_Source\PSoC4/Sensor_ADC.c **** 
 588:.\Generated_Source\PSoC4/Sensor_ADC.c **** 
 589:.\Generated_Source\PSoC4/Sensor_ADC.c **** /*******************************************************************************
 590:.\Generated_Source\PSoC4/Sensor_ADC.c **** * Function Name: Sensor_ADC_SetLimitMask
 591:.\Generated_Source\PSoC4/Sensor_ADC.c **** ********************************************************************************
 592:.\Generated_Source\PSoC4/Sensor_ADC.c **** *
 593:.\Generated_Source\PSoC4/Sensor_ADC.c **** * Summary:
 594:.\Generated_Source\PSoC4/Sensor_ADC.c **** *  Sets the channel limit condition mask.
 595:.\Generated_Source\PSoC4/Sensor_ADC.c **** *
 596:.\Generated_Source\PSoC4/Sensor_ADC.c **** * Parameters:
 597:.\Generated_Source\PSoC4/Sensor_ADC.c **** *  mask: Sets which channels that may cause a
 598:.\Generated_Source\PSoC4/Sensor_ADC.c **** *  limit condition interrupt. Setting bits for channels that do not exist
 599:.\Generated_Source\PSoC4/Sensor_ADC.c **** *  will have no effect. For example, if only 6 channels were enabled,
 600:.\Generated_Source\PSoC4/Sensor_ADC.c **** *  setting a mask of 0x0103 would only enable the last two channels (0 and 1).
 601:.\Generated_Source\PSoC4/Sensor_ADC.c **** *
 602:.\Generated_Source\PSoC4/Sensor_ADC.c **** * Return:
 603:.\Generated_Source\PSoC4/Sensor_ADC.c **** *  None.
 604:.\Generated_Source\PSoC4/Sensor_ADC.c **** *
 605:.\Generated_Source\PSoC4/Sensor_ADC.c **** *******************************************************************************/
 606:.\Generated_Source\PSoC4/Sensor_ADC.c **** void Sensor_ADC_SetLimitMask(uint32 mask)
ARM GAS  C:\Users\jsing\AppData\Local\Temp\ccIpowyF.s 			page 26


 607:.\Generated_Source\PSoC4/Sensor_ADC.c **** {
 813              		.loc 1 607 0
 814              		.cfi_startproc
 815 0000 80B5     		push	{r7, lr}
 816              		.cfi_def_cfa_offset 8
 817              		.cfi_offset 7, -8
 818              		.cfi_offset 14, -4
 819 0002 82B0     		sub	sp, sp, #8
 820              		.cfi_def_cfa_offset 16
 821 0004 00AF     		add	r7, sp, #0
 822              		.cfi_def_cfa_register 7
 823 0006 7860     		str	r0, [r7, #4]
 608:.\Generated_Source\PSoC4/Sensor_ADC.c ****     Sensor_ADC_SAR_RANGE_INTR_MASK_REG = mask & Sensor_ADC_MAX_CHANNELS_EN_MASK;
 824              		.loc 1 608 0
 825 0008 034B     		ldr	r3, .L57
 826 000a 7968     		ldr	r1, [r7, #4]
 827 000c 0722     		mov	r2, #7
 828 000e 0A40     		and	r2, r1
 829 0010 1A60     		str	r2, [r3]
 609:.\Generated_Source\PSoC4/Sensor_ADC.c **** }
 830              		.loc 1 609 0
 831 0012 BD46     		mov	sp, r7
 832 0014 02B0     		add	sp, sp, #8
 833              		@ sp needed
 834 0016 80BD     		pop	{r7, pc}
 835              	.L58:
 836              		.align	2
 837              	.L57:
 838 0018 38023A40 		.word	1077543480
 839              		.cfi_endproc
 840              	.LFE13:
 841              		.size	Sensor_ADC_SetLimitMask, .-Sensor_ADC_SetLimitMask
 842              		.section	.text.Sensor_ADC_SetSatMask,"ax",%progbits
 843              		.align	2
 844              		.global	Sensor_ADC_SetSatMask
 845              		.code	16
 846              		.thumb_func
 847              		.type	Sensor_ADC_SetSatMask, %function
 848              	Sensor_ADC_SetSatMask:
 849              	.LFB14:
 610:.\Generated_Source\PSoC4/Sensor_ADC.c **** 
 611:.\Generated_Source\PSoC4/Sensor_ADC.c **** 
 612:.\Generated_Source\PSoC4/Sensor_ADC.c **** /*******************************************************************************
 613:.\Generated_Source\PSoC4/Sensor_ADC.c **** * Function Name: Sensor_ADC_SetSatMask
 614:.\Generated_Source\PSoC4/Sensor_ADC.c **** ********************************************************************************
 615:.\Generated_Source\PSoC4/Sensor_ADC.c **** *
 616:.\Generated_Source\PSoC4/Sensor_ADC.c **** * Summary:
 617:.\Generated_Source\PSoC4/Sensor_ADC.c **** *  Sets the channel saturation event mask.
 618:.\Generated_Source\PSoC4/Sensor_ADC.c **** *
 619:.\Generated_Source\PSoC4/Sensor_ADC.c **** * Parameters:
 620:.\Generated_Source\PSoC4/Sensor_ADC.c **** *  mask: Sets which channels that may cause a
 621:.\Generated_Source\PSoC4/Sensor_ADC.c **** *  saturation event interrupt. Setting bits for channels that do not exist
 622:.\Generated_Source\PSoC4/Sensor_ADC.c **** *  will have no effect. For example, if only 8 channels were enabled,
 623:.\Generated_Source\PSoC4/Sensor_ADC.c **** *  setting a mask of 0x01C0 would only enable two channels (6 and 7).
 624:.\Generated_Source\PSoC4/Sensor_ADC.c **** *
 625:.\Generated_Source\PSoC4/Sensor_ADC.c **** * Return:
 626:.\Generated_Source\PSoC4/Sensor_ADC.c **** *  None.
ARM GAS  C:\Users\jsing\AppData\Local\Temp\ccIpowyF.s 			page 27


 627:.\Generated_Source\PSoC4/Sensor_ADC.c **** *
 628:.\Generated_Source\PSoC4/Sensor_ADC.c **** *******************************************************************************/
 629:.\Generated_Source\PSoC4/Sensor_ADC.c **** void Sensor_ADC_SetSatMask(uint32 mask)
 630:.\Generated_Source\PSoC4/Sensor_ADC.c **** {
 850              		.loc 1 630 0
 851              		.cfi_startproc
 852 0000 80B5     		push	{r7, lr}
 853              		.cfi_def_cfa_offset 8
 854              		.cfi_offset 7, -8
 855              		.cfi_offset 14, -4
 856 0002 82B0     		sub	sp, sp, #8
 857              		.cfi_def_cfa_offset 16
 858 0004 00AF     		add	r7, sp, #0
 859              		.cfi_def_cfa_register 7
 860 0006 7860     		str	r0, [r7, #4]
 631:.\Generated_Source\PSoC4/Sensor_ADC.c ****     Sensor_ADC_SAR_SATURATE_INTR_MASK_REG = mask & Sensor_ADC_MAX_CHANNELS_EN_MASK;
 861              		.loc 1 631 0
 862 0008 034B     		ldr	r3, .L60
 863 000a 7968     		ldr	r1, [r7, #4]
 864 000c 0722     		mov	r2, #7
 865 000e 0A40     		and	r2, r1
 866 0010 1A60     		str	r2, [r3]
 632:.\Generated_Source\PSoC4/Sensor_ADC.c **** }
 867              		.loc 1 632 0
 868 0012 BD46     		mov	sp, r7
 869 0014 02B0     		add	sp, sp, #8
 870              		@ sp needed
 871 0016 80BD     		pop	{r7, pc}
 872              	.L61:
 873              		.align	2
 874              	.L60:
 875 0018 28023A40 		.word	1077543464
 876              		.cfi_endproc
 877              	.LFE14:
 878              		.size	Sensor_ADC_SetSatMask, .-Sensor_ADC_SetSatMask
 879              		.section	.text.Sensor_ADC_SetOffset,"ax",%progbits
 880              		.align	2
 881              		.global	Sensor_ADC_SetOffset
 882              		.code	16
 883              		.thumb_func
 884              		.type	Sensor_ADC_SetOffset, %function
 885              	Sensor_ADC_SetOffset:
 886              	.LFB15:
 633:.\Generated_Source\PSoC4/Sensor_ADC.c **** 
 634:.\Generated_Source\PSoC4/Sensor_ADC.c **** 
 635:.\Generated_Source\PSoC4/Sensor_ADC.c **** /*******************************************************************************
 636:.\Generated_Source\PSoC4/Sensor_ADC.c **** * Function Name: Sensor_ADC_SetOffset
 637:.\Generated_Source\PSoC4/Sensor_ADC.c **** ********************************************************************************
 638:.\Generated_Source\PSoC4/Sensor_ADC.c **** *
 639:.\Generated_Source\PSoC4/Sensor_ADC.c **** * Summary:
 640:.\Generated_Source\PSoC4/Sensor_ADC.c **** *   Description: Sets the ADC offset which is used by the functions
 641:.\Generated_Source\PSoC4/Sensor_ADC.c **** *   ADC_CountsTo_uVolts, ADC_CountsTo_mVolts and ADC_CountsTo_Volts
 642:.\Generated_Source\PSoC4/Sensor_ADC.c **** *   to substract the offset from the given reading
 643:.\Generated_Source\PSoC4/Sensor_ADC.c **** *   before calculating the voltage conversion.
 644:.\Generated_Source\PSoC4/Sensor_ADC.c **** *
 645:.\Generated_Source\PSoC4/Sensor_ADC.c **** * Parameters:
 646:.\Generated_Source\PSoC4/Sensor_ADC.c **** *  chan: ADC channel number.
ARM GAS  C:\Users\jsing\AppData\Local\Temp\ccIpowyF.s 			page 28


 647:.\Generated_Source\PSoC4/Sensor_ADC.c **** *  offset: This value is a measured value when the
 648:.\Generated_Source\PSoC4/Sensor_ADC.c **** *          inputs are shorted or connected to the same input voltage.
 649:.\Generated_Source\PSoC4/Sensor_ADC.c **** *
 650:.\Generated_Source\PSoC4/Sensor_ADC.c **** * Return:
 651:.\Generated_Source\PSoC4/Sensor_ADC.c **** *  None.
 652:.\Generated_Source\PSoC4/Sensor_ADC.c **** *
 653:.\Generated_Source\PSoC4/Sensor_ADC.c **** * Global variables:
 654:.\Generated_Source\PSoC4/Sensor_ADC.c **** *  Sensor_ADC_Offset:  Modified to set the user provided offset.
 655:.\Generated_Source\PSoC4/Sensor_ADC.c **** *
 656:.\Generated_Source\PSoC4/Sensor_ADC.c **** *******************************************************************************/
 657:.\Generated_Source\PSoC4/Sensor_ADC.c **** void Sensor_ADC_SetOffset(uint32 chan, int16 offset)
 658:.\Generated_Source\PSoC4/Sensor_ADC.c **** {
 887              		.loc 1 658 0
 888              		.cfi_startproc
 889 0000 80B5     		push	{r7, lr}
 890              		.cfi_def_cfa_offset 8
 891              		.cfi_offset 7, -8
 892              		.cfi_offset 14, -4
 893 0002 82B0     		sub	sp, sp, #8
 894              		.cfi_def_cfa_offset 16
 895 0004 00AF     		add	r7, sp, #0
 896              		.cfi_def_cfa_register 7
 897 0006 7860     		str	r0, [r7, #4]
 898 0008 0A1C     		mov	r2, r1
 899 000a BB1C     		add	r3, r7, #2
 900 000c 1A80     		strh	r2, [r3]
 659:.\Generated_Source\PSoC4/Sensor_ADC.c ****     /* Halt CPU in debug mode if channel is out of valid range */
 660:.\Generated_Source\PSoC4/Sensor_ADC.c ****     CYASSERT(chan < Sensor_ADC_TOTAL_CHANNELS_NUM);
 901              		.loc 1 660 0
 902 000e 7B68     		ldr	r3, [r7, #4]
 903 0010 022B     		cmp	r3, #2
 904 0012 02D9     		bls	.L63
 905              		.loc 1 660 0 is_stmt 0 discriminator 1
 906 0014 0020     		mov	r0, #0
 907 0016 FFF7FEFF 		bl	CyHalt
 908              	.L63:
 661:.\Generated_Source\PSoC4/Sensor_ADC.c **** 
 662:.\Generated_Source\PSoC4/Sensor_ADC.c ****     Sensor_ADC_offset[chan] = offset;
 909              		.loc 1 662 0 is_stmt 1
 910 001a 044B     		ldr	r3, .L64
 911 001c 7A68     		ldr	r2, [r7, #4]
 912 001e 5200     		lsl	r2, r2, #1
 913 0020 B91C     		add	r1, r7, #2
 914 0022 0988     		ldrh	r1, [r1]
 915 0024 D152     		strh	r1, [r2, r3]
 663:.\Generated_Source\PSoC4/Sensor_ADC.c **** }
 916              		.loc 1 663 0
 917 0026 BD46     		mov	sp, r7
 918 0028 02B0     		add	sp, sp, #8
 919              		@ sp needed
 920 002a 80BD     		pop	{r7, pc}
 921              	.L65:
 922              		.align	2
 923              	.L64:
 924 002c 00000000 		.word	Sensor_ADC_offset
 925              		.cfi_endproc
 926              	.LFE15:
ARM GAS  C:\Users\jsing\AppData\Local\Temp\ccIpowyF.s 			page 29


 927              		.size	Sensor_ADC_SetOffset, .-Sensor_ADC_SetOffset
 928              		.section	.text.Sensor_ADC_SetGain,"ax",%progbits
 929              		.align	2
 930              		.global	Sensor_ADC_SetGain
 931              		.code	16
 932              		.thumb_func
 933              		.type	Sensor_ADC_SetGain, %function
 934              	Sensor_ADC_SetGain:
 935              	.LFB16:
 664:.\Generated_Source\PSoC4/Sensor_ADC.c **** 
 665:.\Generated_Source\PSoC4/Sensor_ADC.c **** 
 666:.\Generated_Source\PSoC4/Sensor_ADC.c **** /*******************************************************************************
 667:.\Generated_Source\PSoC4/Sensor_ADC.c **** * Function Name: Sensor_ADC_SetGain
 668:.\Generated_Source\PSoC4/Sensor_ADC.c **** ********************************************************************************
 669:.\Generated_Source\PSoC4/Sensor_ADC.c **** *
 670:.\Generated_Source\PSoC4/Sensor_ADC.c **** * Summary:
 671:.\Generated_Source\PSoC4/Sensor_ADC.c **** *  Description: Sets the ADC gain in counts per 10 volt for the voltage
 672:.\Generated_Source\PSoC4/Sensor_ADC.c **** *  conversion functions below. This value is set by default by the
 673:.\Generated_Source\PSoC4/Sensor_ADC.c **** *  reference and input range settings. It should only be used to further
 674:.\Generated_Source\PSoC4/Sensor_ADC.c **** *  calibrate the ADC with a known input or if an external reference is
 675:.\Generated_Source\PSoC4/Sensor_ADC.c **** *  used. Affects the ADC_CountsTo_uVolts, ADC_CountsTo_mVolts
 676:.\Generated_Source\PSoC4/Sensor_ADC.c **** *  and ADC_CountsTo_Volts functions by supplying the correct
 677:.\Generated_Source\PSoC4/Sensor_ADC.c **** *  conversion between ADC counts and voltage.
 678:.\Generated_Source\PSoC4/Sensor_ADC.c **** *
 679:.\Generated_Source\PSoC4/Sensor_ADC.c **** * Parameters:
 680:.\Generated_Source\PSoC4/Sensor_ADC.c **** *  chan: ADC channel number.
 681:.\Generated_Source\PSoC4/Sensor_ADC.c **** *  adcGain: ADC gain in counts per 10 volts.
 682:.\Generated_Source\PSoC4/Sensor_ADC.c **** *
 683:.\Generated_Source\PSoC4/Sensor_ADC.c **** * Return:
 684:.\Generated_Source\PSoC4/Sensor_ADC.c **** *  None.
 685:.\Generated_Source\PSoC4/Sensor_ADC.c **** *
 686:.\Generated_Source\PSoC4/Sensor_ADC.c **** * Global variables:
 687:.\Generated_Source\PSoC4/Sensor_ADC.c **** *  Sensor_ADC_CountsPer10Volt:  modified to set the ADC gain in counts
 688:.\Generated_Source\PSoC4/Sensor_ADC.c **** *   per 10 volt.
 689:.\Generated_Source\PSoC4/Sensor_ADC.c **** *
 690:.\Generated_Source\PSoC4/Sensor_ADC.c **** *******************************************************************************/
 691:.\Generated_Source\PSoC4/Sensor_ADC.c **** void Sensor_ADC_SetGain(uint32 chan, int32 adcGain)
 692:.\Generated_Source\PSoC4/Sensor_ADC.c **** {
 936              		.loc 1 692 0
 937              		.cfi_startproc
 938 0000 80B5     		push	{r7, lr}
 939              		.cfi_def_cfa_offset 8
 940              		.cfi_offset 7, -8
 941              		.cfi_offset 14, -4
 942 0002 82B0     		sub	sp, sp, #8
 943              		.cfi_def_cfa_offset 16
 944 0004 00AF     		add	r7, sp, #0
 945              		.cfi_def_cfa_register 7
 946 0006 7860     		str	r0, [r7, #4]
 947 0008 3960     		str	r1, [r7]
 693:.\Generated_Source\PSoC4/Sensor_ADC.c ****     /* Halt CPU in debug mode if channel is out of valid range */
 694:.\Generated_Source\PSoC4/Sensor_ADC.c ****     CYASSERT(chan < Sensor_ADC_TOTAL_CHANNELS_NUM);
 948              		.loc 1 694 0
 949 000a 7B68     		ldr	r3, [r7, #4]
 950 000c 022B     		cmp	r3, #2
 951 000e 02D9     		bls	.L67
 952              		.loc 1 694 0 is_stmt 0 discriminator 1
ARM GAS  C:\Users\jsing\AppData\Local\Temp\ccIpowyF.s 			page 30


 953 0010 0020     		mov	r0, #0
 954 0012 FFF7FEFF 		bl	CyHalt
 955              	.L67:
 695:.\Generated_Source\PSoC4/Sensor_ADC.c **** 
 696:.\Generated_Source\PSoC4/Sensor_ADC.c ****     Sensor_ADC_countsPer10Volt[chan] = adcGain;
 956              		.loc 1 696 0 is_stmt 1
 957 0016 044B     		ldr	r3, .L68
 958 0018 7A68     		ldr	r2, [r7, #4]
 959 001a 9200     		lsl	r2, r2, #2
 960 001c 3968     		ldr	r1, [r7]
 961 001e D150     		str	r1, [r2, r3]
 697:.\Generated_Source\PSoC4/Sensor_ADC.c **** }
 962              		.loc 1 697 0
 963 0020 BD46     		mov	sp, r7
 964 0022 02B0     		add	sp, sp, #8
 965              		@ sp needed
 966 0024 80BD     		pop	{r7, pc}
 967              	.L69:
 968 0026 C046     		.align	2
 969              	.L68:
 970 0028 00000000 		.word	Sensor_ADC_countsPer10Volt
 971              		.cfi_endproc
 972              	.LFE16:
 973              		.size	Sensor_ADC_SetGain, .-Sensor_ADC_SetGain
 974              		.section	.text.Sensor_ADC_CountsTo_mVolts,"ax",%progbits
 975              		.align	2
 976              		.global	Sensor_ADC_CountsTo_mVolts
 977              		.code	16
 978              		.thumb_func
 979              		.type	Sensor_ADC_CountsTo_mVolts, %function
 980              	Sensor_ADC_CountsTo_mVolts:
 981              	.LFB17:
 698:.\Generated_Source\PSoC4/Sensor_ADC.c **** 
 699:.\Generated_Source\PSoC4/Sensor_ADC.c **** 
 700:.\Generated_Source\PSoC4/Sensor_ADC.c **** #if(Sensor_ADC_DEFAULT_JUSTIFICATION_SEL == Sensor_ADC__RIGHT)
 701:.\Generated_Source\PSoC4/Sensor_ADC.c **** 
 702:.\Generated_Source\PSoC4/Sensor_ADC.c **** 
 703:.\Generated_Source\PSoC4/Sensor_ADC.c ****     /*******************************************************************************
 704:.\Generated_Source\PSoC4/Sensor_ADC.c ****     * Function Name: Sensor_ADC_CountsTo_mVolts
 705:.\Generated_Source\PSoC4/Sensor_ADC.c ****     ********************************************************************************
 706:.\Generated_Source\PSoC4/Sensor_ADC.c ****     *
 707:.\Generated_Source\PSoC4/Sensor_ADC.c ****     * Summary:
 708:.\Generated_Source\PSoC4/Sensor_ADC.c ****     *  This function converts ADC counts to mVolts
 709:.\Generated_Source\PSoC4/Sensor_ADC.c ****     *  This function is not available when left data format justification selected.
 710:.\Generated_Source\PSoC4/Sensor_ADC.c ****     *
 711:.\Generated_Source\PSoC4/Sensor_ADC.c ****     * Parameters:
 712:.\Generated_Source\PSoC4/Sensor_ADC.c ****     *  chan: The ADC channel number.
 713:.\Generated_Source\PSoC4/Sensor_ADC.c ****     *  adcCounts: Result from the ADC conversion
 714:.\Generated_Source\PSoC4/Sensor_ADC.c ****     *
 715:.\Generated_Source\PSoC4/Sensor_ADC.c ****     * Return:
 716:.\Generated_Source\PSoC4/Sensor_ADC.c ****     *  Results in mVolts
 717:.\Generated_Source\PSoC4/Sensor_ADC.c ****     *
 718:.\Generated_Source\PSoC4/Sensor_ADC.c ****     * Global variables:
 719:.\Generated_Source\PSoC4/Sensor_ADC.c ****     *  Sensor_ADC_countsPer10Volt:  used to convert ADC counts to mVolts.
 720:.\Generated_Source\PSoC4/Sensor_ADC.c ****     *  Sensor_ADC_Offset:  Used as the offset while converting ADC counts
 721:.\Generated_Source\PSoC4/Sensor_ADC.c ****     *   to mVolts.
 722:.\Generated_Source\PSoC4/Sensor_ADC.c ****     *
ARM GAS  C:\Users\jsing\AppData\Local\Temp\ccIpowyF.s 			page 31


 723:.\Generated_Source\PSoC4/Sensor_ADC.c ****     *******************************************************************************/
 724:.\Generated_Source\PSoC4/Sensor_ADC.c ****     int16 Sensor_ADC_CountsTo_mVolts(uint32 chan, int16 adcCounts)
 725:.\Generated_Source\PSoC4/Sensor_ADC.c ****     {
 982              		.loc 1 725 0
 983              		.cfi_startproc
 984 0000 80B5     		push	{r7, lr}
 985              		.cfi_def_cfa_offset 8
 986              		.cfi_offset 7, -8
 987              		.cfi_offset 14, -4
 988 0002 84B0     		sub	sp, sp, #16
 989              		.cfi_def_cfa_offset 24
 990 0004 00AF     		add	r7, sp, #0
 991              		.cfi_def_cfa_register 7
 992 0006 7860     		str	r0, [r7, #4]
 993 0008 0A1C     		mov	r2, r1
 994 000a BB1C     		add	r3, r7, #2
 995 000c 1A80     		strh	r2, [r3]
 726:.\Generated_Source\PSoC4/Sensor_ADC.c ****         int16 mVolts;
 727:.\Generated_Source\PSoC4/Sensor_ADC.c **** 
 728:.\Generated_Source\PSoC4/Sensor_ADC.c ****         /* Halt CPU in debug mode if channel is out of valid range */
 729:.\Generated_Source\PSoC4/Sensor_ADC.c ****         CYASSERT(chan < Sensor_ADC_TOTAL_CHANNELS_NUM);
 996              		.loc 1 729 0
 997 000e 7B68     		ldr	r3, [r7, #4]
 998 0010 022B     		cmp	r3, #2
 999 0012 02D9     		bls	.L71
 1000              		.loc 1 729 0 is_stmt 0 discriminator 1
 1001 0014 0020     		mov	r0, #0
 1002 0016 FFF7FEFF 		bl	CyHalt
 1003              	.L71:
 730:.\Generated_Source\PSoC4/Sensor_ADC.c **** 
 731:.\Generated_Source\PSoC4/Sensor_ADC.c ****         /* Divide the adcCount when accumulate averaging mode selected */
 732:.\Generated_Source\PSoC4/Sensor_ADC.c ****         #if(Sensor_ADC_DEFAULT_AVG_MODE == Sensor_ADC__ACCUMULATE)
 733:.\Generated_Source\PSoC4/Sensor_ADC.c ****             if((Sensor_ADC_channelsConfig[chan] & Sensor_ADC_AVERAGING_EN) != 0u)
 1004              		.loc 1 733 0 is_stmt 1
 1005 001a 274B     		ldr	r3, .L79
 1006 001c 7A68     		ldr	r2, [r7, #4]
 1007 001e 9200     		lsl	r2, r2, #2
 1008 0020 D258     		ldr	r2, [r2, r3]
 1009 0022 8023     		mov	r3, #128
 1010 0024 DB00     		lsl	r3, r3, #3
 1011 0026 1340     		and	r3, r2
 1012 0028 08D0     		beq	.L72
 734:.\Generated_Source\PSoC4/Sensor_ADC.c ****             {
 735:.\Generated_Source\PSoC4/Sensor_ADC.c ****                 adcCounts /= Sensor_ADC_DEFAULT_AVG_SAMPLES_DIV;
 1013              		.loc 1 735 0
 1014 002a BA1C     		add	r2, r7, #2
 1015 002c BB1C     		add	r3, r7, #2
 1016 002e 0021     		mov	r1, #0
 1017 0030 5B5E     		ldrsh	r3, [r3, r1]
 1018 0032 002B     		cmp	r3, #0
 1019 0034 00DA     		bge	.L73
 1020 0036 0733     		add	r3, r3, #7
 1021              	.L73:
 1022 0038 DB10     		asr	r3, r3, #3
 1023 003a 1380     		strh	r3, [r2]
 1024              	.L72:
 736:.\Generated_Source\PSoC4/Sensor_ADC.c ****             }
ARM GAS  C:\Users\jsing\AppData\Local\Temp\ccIpowyF.s 			page 32


 737:.\Generated_Source\PSoC4/Sensor_ADC.c ****         #endif /* Sensor_ADC_DEFAULT_AVG_MODE == Sensor_ADC__ACCUMULATE */
 738:.\Generated_Source\PSoC4/Sensor_ADC.c **** 
 739:.\Generated_Source\PSoC4/Sensor_ADC.c ****         /* Subtract ADC offset */
 740:.\Generated_Source\PSoC4/Sensor_ADC.c ****         adcCounts -= Sensor_ADC_offset[chan];
 1025              		.loc 1 740 0
 1026 003c BB1C     		add	r3, r7, #2
 1027 003e 1A88     		ldrh	r2, [r3]
 1028 0040 1E4B     		ldr	r3, .L79+4
 1029 0042 7968     		ldr	r1, [r7, #4]
 1030 0044 4900     		lsl	r1, r1, #1
 1031 0046 CB5A     		ldrh	r3, [r1, r3]
 1032 0048 9BB2     		uxth	r3, r3
 1033 004a 9BB2     		uxth	r3, r3
 1034 004c D31A     		sub	r3, r2, r3
 1035 004e 9AB2     		uxth	r2, r3
 1036 0050 BB1C     		add	r3, r7, #2
 1037 0052 1A80     		strh	r2, [r3]
 741:.\Generated_Source\PSoC4/Sensor_ADC.c **** 
 742:.\Generated_Source\PSoC4/Sensor_ADC.c ****         mVolts = (int16)((((int32)adcCounts * Sensor_ADC_10MV_COUNTS) + ( (adcCounts > 0) ?
 1038              		.loc 1 742 0
 1039 0054 BB1C     		add	r3, r7, #2
 1040 0056 0022     		mov	r2, #0
 1041 0058 9B5E     		ldrsh	r3, [r3, r2]
 1042 005a 194A     		ldr	r2, .L79+8
 1043 005c 5A43     		mul	r2, r3
 743:.\Generated_Source\PSoC4/Sensor_ADC.c ****                  (Sensor_ADC_countsPer10Volt[chan] / 2) : (-(Sensor_ADC_countsPer10Volt[chan] / 2))
 1044              		.loc 1 743 0
 1045 005e BB1C     		add	r3, r7, #2
 1046 0060 0021     		mov	r1, #0
 1047 0062 5B5E     		ldrsh	r3, [r3, r1]
 1048 0064 002B     		cmp	r3, #0
 1049 0066 08DD     		ble	.L74
 1050              		.loc 1 743 0 is_stmt 0 discriminator 1
 1051 0068 164B     		ldr	r3, .L79+12
 1052 006a 7968     		ldr	r1, [r7, #4]
 1053 006c 8900     		lsl	r1, r1, #2
 1054 006e CB58     		ldr	r3, [r1, r3]
 1055 0070 002B     		cmp	r3, #0
 1056 0072 00DA     		bge	.L75
 1057 0074 0133     		add	r3, r3, #1
 1058              	.L75:
 1059 0076 5B10     		asr	r3, r3, #1
 1060 0078 08E0     		b	.L76
 1061              	.L74:
 1062              		.loc 1 743 0 discriminator 2
 1063 007a 124B     		ldr	r3, .L79+12
 1064 007c 7968     		ldr	r1, [r7, #4]
 1065 007e 8900     		lsl	r1, r1, #2
 1066 0080 CB58     		ldr	r3, [r1, r3]
 1067 0082 002B     		cmp	r3, #0
 1068 0084 00DA     		bge	.L77
 1069 0086 0133     		add	r3, r3, #1
 1070              	.L77:
 1071 0088 5B10     		asr	r3, r3, #1
 1072 008a 5B42     		neg	r3, r3
 1073              	.L76:
 742:.\Generated_Source\PSoC4/Sensor_ADC.c ****         mVolts = (int16)((((int32)adcCounts * Sensor_ADC_10MV_COUNTS) + ( (adcCounts > 0) ?
ARM GAS  C:\Users\jsing\AppData\Local\Temp\ccIpowyF.s 			page 33


 1074              		.loc 1 742 0 is_stmt 1
 1075 008c D218     		add	r2, r2, r3
 744:.\Generated_Source\PSoC4/Sensor_ADC.c ****                  / Sensor_ADC_countsPer10Volt[chan]);
 1076              		.loc 1 744 0
 1077 008e 0D4B     		ldr	r3, .L79+12
 1078 0090 7968     		ldr	r1, [r7, #4]
 1079 0092 8900     		lsl	r1, r1, #2
 1080 0094 CB58     		ldr	r3, [r1, r3]
 1081 0096 101C     		mov	r0, r2
 1082 0098 191C     		mov	r1, r3
 1083 009a FFF7FEFF 		bl	__aeabi_idiv
 1084 009e 031C     		mov	r3, r0
 1085 00a0 1A1C     		mov	r2, r3
 742:.\Generated_Source\PSoC4/Sensor_ADC.c ****         mVolts = (int16)((((int32)adcCounts * Sensor_ADC_10MV_COUNTS) + ( (adcCounts > 0) ?
 1086              		.loc 1 742 0
 1087 00a2 3B1C     		mov	r3, r7
 1088 00a4 0E33     		add	r3, r3, #14
 1089 00a6 1A80     		strh	r2, [r3]
 745:.\Generated_Source\PSoC4/Sensor_ADC.c **** 
 746:.\Generated_Source\PSoC4/Sensor_ADC.c ****         return( mVolts );
 1090              		.loc 1 746 0
 1091 00a8 3B1C     		mov	r3, r7
 1092 00aa 0E33     		add	r3, r3, #14
 1093 00ac 1B88     		ldrh	r3, [r3]
 1094 00ae 1BB2     		sxth	r3, r3
 747:.\Generated_Source\PSoC4/Sensor_ADC.c ****     }
 1095              		.loc 1 747 0
 1096 00b0 181C     		mov	r0, r3
 1097 00b2 BD46     		mov	sp, r7
 1098 00b4 04B0     		add	sp, sp, #16
 1099              		@ sp needed
 1100 00b6 80BD     		pop	{r7, pc}
 1101              	.L80:
 1102              		.align	2
 1103              	.L79:
 1104 00b8 00000000 		.word	Sensor_ADC_channelsConfig
 1105 00bc 00000000 		.word	Sensor_ADC_offset
 1106 00c0 10270000 		.word	10000
 1107 00c4 00000000 		.word	Sensor_ADC_countsPer10Volt
 1108              		.cfi_endproc
 1109              	.LFE17:
 1110              		.size	Sensor_ADC_CountsTo_mVolts, .-Sensor_ADC_CountsTo_mVolts
 1111              		.global	__aeabi_lmul
 1112              		.global	__aeabi_ldivmod
 1113              		.section	.text.Sensor_ADC_CountsTo_uVolts,"ax",%progbits
 1114              		.align	2
 1115              		.global	Sensor_ADC_CountsTo_uVolts
 1116              		.code	16
 1117              		.thumb_func
 1118              		.type	Sensor_ADC_CountsTo_uVolts, %function
 1119              	Sensor_ADC_CountsTo_uVolts:
 1120              	.LFB18:
 748:.\Generated_Source\PSoC4/Sensor_ADC.c **** 
 749:.\Generated_Source\PSoC4/Sensor_ADC.c **** 
 750:.\Generated_Source\PSoC4/Sensor_ADC.c ****     /*******************************************************************************
 751:.\Generated_Source\PSoC4/Sensor_ADC.c ****     * Function Name: Sensor_ADC_CountsTo_uVolts
 752:.\Generated_Source\PSoC4/Sensor_ADC.c ****     ********************************************************************************
ARM GAS  C:\Users\jsing\AppData\Local\Temp\ccIpowyF.s 			page 34


 753:.\Generated_Source\PSoC4/Sensor_ADC.c ****     *
 754:.\Generated_Source\PSoC4/Sensor_ADC.c ****     * Summary:
 755:.\Generated_Source\PSoC4/Sensor_ADC.c ****     *  This function converts ADC counts to micro Volts
 756:.\Generated_Source\PSoC4/Sensor_ADC.c ****     *  This function is not available when left data format justification selected.
 757:.\Generated_Source\PSoC4/Sensor_ADC.c ****     *
 758:.\Generated_Source\PSoC4/Sensor_ADC.c ****     * Parameters:
 759:.\Generated_Source\PSoC4/Sensor_ADC.c ****     *  chan: The ADC channel number.
 760:.\Generated_Source\PSoC4/Sensor_ADC.c ****     *  adcCounts: Result from the ADC conversion
 761:.\Generated_Source\PSoC4/Sensor_ADC.c ****     *
 762:.\Generated_Source\PSoC4/Sensor_ADC.c ****     * Return:
 763:.\Generated_Source\PSoC4/Sensor_ADC.c ****     *  Results in uVolts
 764:.\Generated_Source\PSoC4/Sensor_ADC.c ****     *
 765:.\Generated_Source\PSoC4/Sensor_ADC.c ****     * Global variables:
 766:.\Generated_Source\PSoC4/Sensor_ADC.c ****     *  Sensor_ADC_countsPer10Volt:  used to convert ADC counts to uVolts.
 767:.\Generated_Source\PSoC4/Sensor_ADC.c ****     *  Sensor_ADC_Offset:  Used as the offset while converting ADC counts
 768:.\Generated_Source\PSoC4/Sensor_ADC.c ****     *   to mVolts.
 769:.\Generated_Source\PSoC4/Sensor_ADC.c ****     *
 770:.\Generated_Source\PSoC4/Sensor_ADC.c ****     * Theory:
 771:.\Generated_Source\PSoC4/Sensor_ADC.c ****     *  Care must be taken to not exceed the maximum value for a 31 bit signed
 772:.\Generated_Source\PSoC4/Sensor_ADC.c ****     *  number in the conversion to uVolts and at the same time not loose
 773:.\Generated_Source\PSoC4/Sensor_ADC.c ****     *  resolution.
 774:.\Generated_Source\PSoC4/Sensor_ADC.c ****     *  To convert adcCounts to microVolts it is required to be multiplied
 775:.\Generated_Source\PSoC4/Sensor_ADC.c ****     *  on 10 million and later divide on gain in counts per 10V.
 776:.\Generated_Source\PSoC4/Sensor_ADC.c ****     *
 777:.\Generated_Source\PSoC4/Sensor_ADC.c ****     *******************************************************************************/
 778:.\Generated_Source\PSoC4/Sensor_ADC.c ****     int32 Sensor_ADC_CountsTo_uVolts(uint32 chan, int16 adcCounts)
 779:.\Generated_Source\PSoC4/Sensor_ADC.c ****     {
 1121              		.loc 1 779 0
 1122              		.cfi_startproc
 1123 0000 B0B5     		push	{r4, r5, r7, lr}
 1124              		.cfi_def_cfa_offset 16
 1125              		.cfi_offset 4, -16
 1126              		.cfi_offset 5, -12
 1127              		.cfi_offset 7, -8
 1128              		.cfi_offset 14, -4
 1129 0002 86B0     		sub	sp, sp, #24
 1130              		.cfi_def_cfa_offset 40
 1131 0004 00AF     		add	r7, sp, #0
 1132              		.cfi_def_cfa_register 7
 1133 0006 F860     		str	r0, [r7, #12]
 1134 0008 0A1C     		mov	r2, r1
 1135 000a 3B1C     		mov	r3, r7
 1136 000c 0A33     		add	r3, r3, #10
 1137 000e 1A80     		strh	r2, [r3]
 780:.\Generated_Source\PSoC4/Sensor_ADC.c ****         int64 uVolts;
 781:.\Generated_Source\PSoC4/Sensor_ADC.c **** 
 782:.\Generated_Source\PSoC4/Sensor_ADC.c ****         /* Halt CPU in debug mode if channel is out of valid range */
 783:.\Generated_Source\PSoC4/Sensor_ADC.c ****         CYASSERT(chan < Sensor_ADC_TOTAL_CHANNELS_NUM);
 1138              		.loc 1 783 0
 1139 0010 FB68     		ldr	r3, [r7, #12]
 1140 0012 022B     		cmp	r3, #2
 1141 0014 02D9     		bls	.L82
 1142              		.loc 1 783 0 is_stmt 0 discriminator 1
 1143 0016 0020     		mov	r0, #0
 1144 0018 FFF7FEFF 		bl	CyHalt
 1145              	.L82:
 784:.\Generated_Source\PSoC4/Sensor_ADC.c **** 
ARM GAS  C:\Users\jsing\AppData\Local\Temp\ccIpowyF.s 			page 35


 785:.\Generated_Source\PSoC4/Sensor_ADC.c ****         /* Divide the adcCount when accumulate averaging mode selected */
 786:.\Generated_Source\PSoC4/Sensor_ADC.c ****         #if(Sensor_ADC_DEFAULT_AVG_MODE == Sensor_ADC__ACCUMULATE)
 787:.\Generated_Source\PSoC4/Sensor_ADC.c ****             if((Sensor_ADC_channelsConfig[chan] & Sensor_ADC_AVERAGING_EN) != 0u)
 1146              		.loc 1 787 0 is_stmt 1
 1147 001c 244B     		ldr	r3, .L86+8
 1148 001e FA68     		ldr	r2, [r7, #12]
 1149 0020 9200     		lsl	r2, r2, #2
 1150 0022 D258     		ldr	r2, [r2, r3]
 1151 0024 8023     		mov	r3, #128
 1152 0026 DB00     		lsl	r3, r3, #3
 1153 0028 1340     		and	r3, r2
 1154 002a 0AD0     		beq	.L83
 788:.\Generated_Source\PSoC4/Sensor_ADC.c ****             {
 789:.\Generated_Source\PSoC4/Sensor_ADC.c ****                 adcCounts /= Sensor_ADC_DEFAULT_AVG_SAMPLES_DIV;
 1155              		.loc 1 789 0
 1156 002c 3A1C     		mov	r2, r7
 1157 002e 0A32     		add	r2, r2, #10
 1158 0030 3B1C     		mov	r3, r7
 1159 0032 0A33     		add	r3, r3, #10
 1160 0034 0021     		mov	r1, #0
 1161 0036 5B5E     		ldrsh	r3, [r3, r1]
 1162 0038 002B     		cmp	r3, #0
 1163 003a 00DA     		bge	.L84
 1164 003c 0733     		add	r3, r3, #7
 1165              	.L84:
 1166 003e DB10     		asr	r3, r3, #3
 1167 0040 1380     		strh	r3, [r2]
 1168              	.L83:
 790:.\Generated_Source\PSoC4/Sensor_ADC.c ****             }
 791:.\Generated_Source\PSoC4/Sensor_ADC.c ****         #endif /* Sensor_ADC_DEFAULT_AVG_MODE == Sensor_ADC__ACCUMULATE */
 792:.\Generated_Source\PSoC4/Sensor_ADC.c **** 
 793:.\Generated_Source\PSoC4/Sensor_ADC.c ****         /* Subtract ADC offset */
 794:.\Generated_Source\PSoC4/Sensor_ADC.c ****         adcCounts -= Sensor_ADC_offset[chan];
 1169              		.loc 1 794 0
 1170 0042 3B1C     		mov	r3, r7
 1171 0044 0A33     		add	r3, r3, #10
 1172 0046 1A88     		ldrh	r2, [r3]
 1173 0048 1A4B     		ldr	r3, .L86+12
 1174 004a F968     		ldr	r1, [r7, #12]
 1175 004c 4900     		lsl	r1, r1, #1
 1176 004e CB5A     		ldrh	r3, [r1, r3]
 1177 0050 9BB2     		uxth	r3, r3
 1178 0052 9BB2     		uxth	r3, r3
 1179 0054 D31A     		sub	r3, r2, r3
 1180 0056 9AB2     		uxth	r2, r3
 1181 0058 3B1C     		mov	r3, r7
 1182 005a 0A33     		add	r3, r3, #10
 1183 005c 1A80     		strh	r2, [r3]
 795:.\Generated_Source\PSoC4/Sensor_ADC.c **** 
 796:.\Generated_Source\PSoC4/Sensor_ADC.c ****         uVolts = ((int64)adcCounts * Sensor_ADC_10UV_COUNTS) / Sensor_ADC_countsPer10Volt[chan];
 1184              		.loc 1 796 0
 1185 005e 3B1C     		mov	r3, r7
 1186 0060 0A33     		add	r3, r3, #10
 1187 0062 1B88     		ldrh	r3, [r3]
 1188 0064 1BB2     		sxth	r3, r3
 1189 0066 3B60     		str	r3, [r7]
 1190 0068 DB17     		asr	r3, r3, #31
ARM GAS  C:\Users\jsing\AppData\Local\Temp\ccIpowyF.s 			page 36


 1191 006a 7B60     		str	r3, [r7, #4]
 1192 006c 3868     		ldr	r0, [r7]
 1193 006e 7968     		ldr	r1, [r7, #4]
 1194 0070 0E4B     		ldr	r3, .L86+4
 1195 0072 0D4A     		ldr	r2, .L86
 1196 0074 FFF7FEFF 		bl	__aeabi_lmul
 1197 0078 021C     		mov	r2, r0
 1198 007a 0B1C     		mov	r3, r1
 1199 007c 0E49     		ldr	r1, .L86+16
 1200 007e F868     		ldr	r0, [r7, #12]
 1201 0080 8000     		lsl	r0, r0, #2
 1202 0082 4158     		ldr	r1, [r0, r1]
 1203 0084 0C1C     		mov	r4, r1
 1204 0086 C917     		asr	r1, r1, #31
 1205 0088 0D1C     		mov	r5, r1
 1206 008a 101C     		mov	r0, r2
 1207 008c 191C     		mov	r1, r3
 1208 008e 221C     		mov	r2, r4
 1209 0090 2B1C     		mov	r3, r5
 1210 0092 FFF7FEFF 		bl	__aeabi_ldivmod
 1211 0096 031C     		mov	r3, r0
 1212 0098 0C1C     		mov	r4, r1
 1213 009a 3B61     		str	r3, [r7, #16]
 1214 009c 7C61     		str	r4, [r7, #20]
 797:.\Generated_Source\PSoC4/Sensor_ADC.c **** 
 798:.\Generated_Source\PSoC4/Sensor_ADC.c ****         return( (int32)uVolts );
 1215              		.loc 1 798 0
 1216 009e 3B69     		ldr	r3, [r7, #16]
 799:.\Generated_Source\PSoC4/Sensor_ADC.c ****     }
 1217              		.loc 1 799 0
 1218 00a0 181C     		mov	r0, r3
 1219 00a2 BD46     		mov	sp, r7
 1220 00a4 06B0     		add	sp, sp, #24
 1221              		@ sp needed
 1222 00a6 B0BD     		pop	{r4, r5, r7, pc}
 1223              	.L87:
 1224              		.align	3
 1225              	.L86:
 1226 00a8 80969800 		.word	10000000
 1227 00ac 00000000 		.word	0
 1228 00b0 00000000 		.word	Sensor_ADC_channelsConfig
 1229 00b4 00000000 		.word	Sensor_ADC_offset
 1230 00b8 00000000 		.word	Sensor_ADC_countsPer10Volt
 1231              		.cfi_endproc
 1232              	.LFE18:
 1233              		.size	Sensor_ADC_CountsTo_uVolts, .-Sensor_ADC_CountsTo_uVolts
 1234              		.global	__aeabi_i2f
 1235              		.global	__aeabi_fmul
 1236              		.global	__aeabi_fdiv
 1237 00bc C046C046 		.section	.text.Sensor_ADC_CountsTo_Volts,"ax",%progbits
 1238              		.align	2
 1239              		.global	Sensor_ADC_CountsTo_Volts
 1240              		.code	16
 1241              		.thumb_func
 1242              		.type	Sensor_ADC_CountsTo_Volts, %function
 1243              	Sensor_ADC_CountsTo_Volts:
 1244              	.LFB19:
ARM GAS  C:\Users\jsing\AppData\Local\Temp\ccIpowyF.s 			page 37


 800:.\Generated_Source\PSoC4/Sensor_ADC.c **** 
 801:.\Generated_Source\PSoC4/Sensor_ADC.c **** 
 802:.\Generated_Source\PSoC4/Sensor_ADC.c ****     /*******************************************************************************
 803:.\Generated_Source\PSoC4/Sensor_ADC.c ****     * Function Name: Sensor_ADC_CountsTo_Volts
 804:.\Generated_Source\PSoC4/Sensor_ADC.c ****     ********************************************************************************
 805:.\Generated_Source\PSoC4/Sensor_ADC.c ****     *
 806:.\Generated_Source\PSoC4/Sensor_ADC.c ****     * Summary:
 807:.\Generated_Source\PSoC4/Sensor_ADC.c ****     *  Converts the ADC output to Volts as a floating point number.
 808:.\Generated_Source\PSoC4/Sensor_ADC.c ****     *  This function is not available when left data format justification selected.
 809:.\Generated_Source\PSoC4/Sensor_ADC.c ****     *
 810:.\Generated_Source\PSoC4/Sensor_ADC.c ****     * Parameters:
 811:.\Generated_Source\PSoC4/Sensor_ADC.c ****     *  chan: The ADC channel number.
 812:.\Generated_Source\PSoC4/Sensor_ADC.c ****     *  Result from the ADC conversion
 813:.\Generated_Source\PSoC4/Sensor_ADC.c ****     *
 814:.\Generated_Source\PSoC4/Sensor_ADC.c ****     * Return:
 815:.\Generated_Source\PSoC4/Sensor_ADC.c ****     *  Results in Volts
 816:.\Generated_Source\PSoC4/Sensor_ADC.c ****     *
 817:.\Generated_Source\PSoC4/Sensor_ADC.c ****     * Global variables:
 818:.\Generated_Source\PSoC4/Sensor_ADC.c ****     *  Sensor_ADC_countsPer10Volt:  used to convert ADC counts to Volts.
 819:.\Generated_Source\PSoC4/Sensor_ADC.c ****     *  Sensor_ADC_Offset:  Used as the offset while converting ADC counts
 820:.\Generated_Source\PSoC4/Sensor_ADC.c ****     *   to mVolts.
 821:.\Generated_Source\PSoC4/Sensor_ADC.c ****     *
 822:.\Generated_Source\PSoC4/Sensor_ADC.c ****     *******************************************************************************/
 823:.\Generated_Source\PSoC4/Sensor_ADC.c ****     float32 Sensor_ADC_CountsTo_Volts(uint32 chan, int16 adcCounts)
 824:.\Generated_Source\PSoC4/Sensor_ADC.c ****     {
 1245              		.loc 1 824 0
 1246              		.cfi_startproc
 1247 0000 90B5     		push	{r4, r7, lr}
 1248              		.cfi_def_cfa_offset 12
 1249              		.cfi_offset 4, -12
 1250              		.cfi_offset 7, -8
 1251              		.cfi_offset 14, -4
 1252 0002 85B0     		sub	sp, sp, #20
 1253              		.cfi_def_cfa_offset 32
 1254 0004 00AF     		add	r7, sp, #0
 1255              		.cfi_def_cfa_register 7
 1256 0006 7860     		str	r0, [r7, #4]
 1257 0008 0A1C     		mov	r2, r1
 1258 000a BB1C     		add	r3, r7, #2
 1259 000c 1A80     		strh	r2, [r3]
 825:.\Generated_Source\PSoC4/Sensor_ADC.c ****         float32 volts;
 826:.\Generated_Source\PSoC4/Sensor_ADC.c **** 
 827:.\Generated_Source\PSoC4/Sensor_ADC.c ****         /* Halt CPU in debug mode if channel is out of valid range */
 828:.\Generated_Source\PSoC4/Sensor_ADC.c ****         CYASSERT(chan < Sensor_ADC_TOTAL_CHANNELS_NUM);
 1260              		.loc 1 828 0
 1261 000e 7B68     		ldr	r3, [r7, #4]
 1262 0010 022B     		cmp	r3, #2
 1263 0012 02D9     		bls	.L89
 1264              		.loc 1 828 0 is_stmt 0 discriminator 1
 1265 0014 0020     		mov	r0, #0
 1266 0016 FFF7FEFF 		bl	CyHalt
 1267              	.L89:
 829:.\Generated_Source\PSoC4/Sensor_ADC.c **** 
 830:.\Generated_Source\PSoC4/Sensor_ADC.c ****         /* Divide the adcCount when accumulate averaging mode selected */
 831:.\Generated_Source\PSoC4/Sensor_ADC.c ****         #if(Sensor_ADC_DEFAULT_AVG_MODE == Sensor_ADC__ACCUMULATE)
 832:.\Generated_Source\PSoC4/Sensor_ADC.c ****             if((Sensor_ADC_channelsConfig[chan] & Sensor_ADC_AVERAGING_EN) != 0u)
 1268              		.loc 1 832 0 is_stmt 1
ARM GAS  C:\Users\jsing\AppData\Local\Temp\ccIpowyF.s 			page 38


 1269 001a 1E4B     		ldr	r3, .L93
 1270 001c 7A68     		ldr	r2, [r7, #4]
 1271 001e 9200     		lsl	r2, r2, #2
 1272 0020 D258     		ldr	r2, [r2, r3]
 1273 0022 8023     		mov	r3, #128
 1274 0024 DB00     		lsl	r3, r3, #3
 1275 0026 1340     		and	r3, r2
 1276 0028 08D0     		beq	.L90
 833:.\Generated_Source\PSoC4/Sensor_ADC.c ****             {
 834:.\Generated_Source\PSoC4/Sensor_ADC.c ****                 adcCounts /= Sensor_ADC_DEFAULT_AVG_SAMPLES_DIV;
 1277              		.loc 1 834 0
 1278 002a BA1C     		add	r2, r7, #2
 1279 002c BB1C     		add	r3, r7, #2
 1280 002e 0021     		mov	r1, #0
 1281 0030 5B5E     		ldrsh	r3, [r3, r1]
 1282 0032 002B     		cmp	r3, #0
 1283 0034 00DA     		bge	.L91
 1284 0036 0733     		add	r3, r3, #7
 1285              	.L91:
 1286 0038 DB10     		asr	r3, r3, #3
 1287 003a 1380     		strh	r3, [r2]
 1288              	.L90:
 835:.\Generated_Source\PSoC4/Sensor_ADC.c ****             }
 836:.\Generated_Source\PSoC4/Sensor_ADC.c ****         #endif /* Sensor_ADC_DEFAULT_AVG_MODE == Sensor_ADC__ACCUMULATE */
 837:.\Generated_Source\PSoC4/Sensor_ADC.c **** 
 838:.\Generated_Source\PSoC4/Sensor_ADC.c ****         /* Subtract ADC offset */
 839:.\Generated_Source\PSoC4/Sensor_ADC.c ****         adcCounts -= Sensor_ADC_offset[chan];
 1289              		.loc 1 839 0
 1290 003c BB1C     		add	r3, r7, #2
 1291 003e 1A88     		ldrh	r2, [r3]
 1292 0040 154B     		ldr	r3, .L93+4
 1293 0042 7968     		ldr	r1, [r7, #4]
 1294 0044 4900     		lsl	r1, r1, #1
 1295 0046 CB5A     		ldrh	r3, [r1, r3]
 1296 0048 9BB2     		uxth	r3, r3
 1297 004a 9BB2     		uxth	r3, r3
 1298 004c D31A     		sub	r3, r2, r3
 1299 004e 9AB2     		uxth	r2, r3
 1300 0050 BB1C     		add	r3, r7, #2
 1301 0052 1A80     		strh	r2, [r3]
 840:.\Generated_Source\PSoC4/Sensor_ADC.c **** 
 841:.\Generated_Source\PSoC4/Sensor_ADC.c ****         volts = ((float32)adcCounts * Sensor_ADC_10V_COUNTS) / (float32)Sensor_ADC_countsPer10Volt[
 1302              		.loc 1 841 0
 1303 0054 BB1C     		add	r3, r7, #2
 1304 0056 0022     		mov	r2, #0
 1305 0058 9B5E     		ldrsh	r3, [r3, r2]
 1306 005a 181C     		mov	r0, r3
 1307 005c FFF7FEFF 		bl	__aeabi_i2f
 1308 0060 031C     		add	r3, r0, #0
 1309 0062 181C     		add	r0, r3, #0
 1310 0064 0D49     		ldr	r1, .L93+8
 1311 0066 FFF7FEFF 		bl	__aeabi_fmul
 1312 006a 031C     		add	r3, r0, #0
 1313 006c 1C1C     		add	r4, r3, #0
 1314 006e 0C4B     		ldr	r3, .L93+12
 1315 0070 7A68     		ldr	r2, [r7, #4]
 1316 0072 9200     		lsl	r2, r2, #2
ARM GAS  C:\Users\jsing\AppData\Local\Temp\ccIpowyF.s 			page 39


 1317 0074 D358     		ldr	r3, [r2, r3]
 1318 0076 181C     		mov	r0, r3
 1319 0078 FFF7FEFF 		bl	__aeabi_i2f
 1320 007c 031C     		add	r3, r0, #0
 1321 007e 201C     		add	r0, r4, #0
 1322 0080 191C     		add	r1, r3, #0
 1323 0082 FFF7FEFF 		bl	__aeabi_fdiv
 1324 0086 031C     		add	r3, r0, #0
 1325 0088 FB60     		str	r3, [r7, #12]
 842:.\Generated_Source\PSoC4/Sensor_ADC.c **** 
 843:.\Generated_Source\PSoC4/Sensor_ADC.c ****         return( volts );
 1326              		.loc 1 843 0
 1327 008a FB68     		ldr	r3, [r7, #12]
 844:.\Generated_Source\PSoC4/Sensor_ADC.c ****     }
 1328              		.loc 1 844 0
 1329 008c 181C     		add	r0, r3, #0
 1330 008e BD46     		mov	sp, r7
 1331 0090 05B0     		add	sp, sp, #20
 1332              		@ sp needed
 1333 0092 90BD     		pop	{r4, r7, pc}
 1334              	.L94:
 1335              		.align	2
 1336              	.L93:
 1337 0094 00000000 		.word	Sensor_ADC_channelsConfig
 1338 0098 00000000 		.word	Sensor_ADC_offset
 1339 009c 00002041 		.word	1092616192
 1340 00a0 00000000 		.word	Sensor_ADC_countsPer10Volt
 1341              		.cfi_endproc
 1342              	.LFE19:
 1343              		.size	Sensor_ADC_CountsTo_Volts, .-Sensor_ADC_CountsTo_Volts
 1344              		.section	.rodata
 1345              		.align	2
 1346              		.type	Sensor_ADC_InputsPlacement.4747, %object
 1347              		.size	Sensor_ADC_InputsPlacement.4747, 3
 1348              	Sensor_ADC_InputsPlacement.4747:
 1349 000c 03       		.byte	3
 1350 000d 04       		.byte	4
 1351 000e 05       		.byte	5
 1352 000f 00       		.text
 1353              	.Letext0:
 1354              		.file 2 ".\\Generated_Source\\PSoC4\\cytypes.h"
 1355              		.section	.debug_info,"",%progbits
 1356              	.Ldebug_info0:
 1357 0000 96040000 		.4byte	0x496
 1358 0004 0400     		.2byte	0x4
 1359 0006 00000000 		.4byte	.Ldebug_abbrev0
 1360 000a 04       		.byte	0x4
 1361 000b 01       		.uleb128 0x1
 1362 000c 92020000 		.4byte	.LASF60
 1363 0010 01       		.byte	0x1
 1364 0011 25040000 		.4byte	.LASF61
 1365 0015 48000000 		.4byte	.LASF62
 1366 0019 00000000 		.4byte	.Ldebug_ranges0+0
 1367 001d 00000000 		.4byte	0
 1368 0021 00000000 		.4byte	.Ldebug_line0
 1369 0025 02       		.uleb128 0x2
 1370 0026 01       		.byte	0x1
ARM GAS  C:\Users\jsing\AppData\Local\Temp\ccIpowyF.s 			page 40


 1371 0027 06       		.byte	0x6
 1372 0028 CD000000 		.4byte	.LASF0
 1373 002c 02       		.uleb128 0x2
 1374 002d 01       		.byte	0x1
 1375 002e 08       		.byte	0x8
 1376 002f 5D030000 		.4byte	.LASF1
 1377 0033 02       		.uleb128 0x2
 1378 0034 02       		.byte	0x2
 1379 0035 05       		.byte	0x5
 1380 0036 85030000 		.4byte	.LASF2
 1381 003a 02       		.uleb128 0x2
 1382 003b 02       		.byte	0x2
 1383 003c 07       		.byte	0x7
 1384 003d 02020000 		.4byte	.LASF3
 1385 0041 02       		.uleb128 0x2
 1386 0042 04       		.byte	0x4
 1387 0043 05       		.byte	0x5
 1388 0044 F1000000 		.4byte	.LASF4
 1389 0048 02       		.uleb128 0x2
 1390 0049 04       		.byte	0x4
 1391 004a 07       		.byte	0x7
 1392 004b A1010000 		.4byte	.LASF5
 1393 004f 02       		.uleb128 0x2
 1394 0050 08       		.byte	0x8
 1395 0051 05       		.byte	0x5
 1396 0052 BF000000 		.4byte	.LASF6
 1397 0056 02       		.uleb128 0x2
 1398 0057 08       		.byte	0x8
 1399 0058 07       		.byte	0x7
 1400 0059 16000000 		.4byte	.LASF7
 1401 005d 03       		.uleb128 0x3
 1402 005e 04       		.byte	0x4
 1403 005f 05       		.byte	0x5
 1404 0060 696E7400 		.ascii	"int\000"
 1405 0064 02       		.uleb128 0x2
 1406 0065 04       		.byte	0x4
 1407 0066 07       		.byte	0x7
 1408 0067 8D010000 		.4byte	.LASF8
 1409 006b 04       		.uleb128 0x4
 1410 006c 2A010000 		.4byte	.LASF9
 1411 0070 02       		.byte	0x2
 1412 0071 A1       		.byte	0xa1
 1413 0072 2C000000 		.4byte	0x2c
 1414 0076 04       		.uleb128 0x4
 1415 0077 00000000 		.4byte	.LASF10
 1416 007b 02       		.byte	0x2
 1417 007c A2       		.byte	0xa2
 1418 007d 3A000000 		.4byte	0x3a
 1419 0081 04       		.uleb128 0x4
 1420 0082 4E010000 		.4byte	.LASF11
 1421 0086 02       		.byte	0x2
 1422 0087 A3       		.byte	0xa3
 1423 0088 48000000 		.4byte	0x48
 1424 008c 04       		.uleb128 0x4
 1425 008d 05040000 		.4byte	.LASF12
 1426 0091 02       		.byte	0x2
 1427 0092 A5       		.byte	0xa5
ARM GAS  C:\Users\jsing\AppData\Local\Temp\ccIpowyF.s 			page 41


 1428 0093 33000000 		.4byte	0x33
 1429 0097 04       		.uleb128 0x4
 1430 0098 EB000000 		.4byte	.LASF13
 1431 009c 02       		.byte	0x2
 1432 009d A6       		.byte	0xa6
 1433 009e 41000000 		.4byte	0x41
 1434 00a2 04       		.uleb128 0x4
 1435 00a3 3A020000 		.4byte	.LASF14
 1436 00a7 02       		.byte	0x2
 1437 00a8 A7       		.byte	0xa7
 1438 00a9 AD000000 		.4byte	0xad
 1439 00ad 02       		.uleb128 0x2
 1440 00ae 04       		.byte	0x4
 1441 00af 04       		.byte	0x4
 1442 00b0 8C020000 		.4byte	.LASF15
 1443 00b4 02       		.uleb128 0x2
 1444 00b5 08       		.byte	0x8
 1445 00b6 04       		.byte	0x4
 1446 00b7 30010000 		.4byte	.LASF16
 1447 00bb 04       		.uleb128 0x4
 1448 00bc 86020000 		.4byte	.LASF17
 1449 00c0 02       		.byte	0x2
 1450 00c1 AC       		.byte	0xac
 1451 00c2 4F000000 		.4byte	0x4f
 1452 00c6 02       		.uleb128 0x2
 1453 00c7 01       		.byte	0x1
 1454 00c8 08       		.byte	0x8
 1455 00c9 9A030000 		.4byte	.LASF18
 1456 00cd 05       		.uleb128 0x5
 1457 00ce 1C020000 		.4byte	.LASF19
 1458 00d2 02       		.byte	0x2
 1459 00d3 4D01     		.2byte	0x14d
 1460 00d5 D9000000 		.4byte	0xd9
 1461 00d9 06       		.uleb128 0x6
 1462 00da 81000000 		.4byte	0x81
 1463 00de 02       		.uleb128 0x2
 1464 00df 04       		.byte	0x4
 1465 00e0 07       		.byte	0x7
 1466 00e1 42020000 		.4byte	.LASF20
 1467 00e5 07       		.uleb128 0x7
 1468 00e6 C8030000 		.4byte	.LASF25
 1469 00ea 01       		.byte	0x1
 1470 00eb 3F       		.byte	0x3f
 1471 00ec 00000000 		.4byte	.LFB2
 1472 00f0 24000000 		.4byte	.LFE2-.LFB2
 1473 00f4 01       		.uleb128 0x1
 1474 00f5 9C       		.byte	0x9c
 1475 00f6 08       		.uleb128 0x8
 1476 00f7 B1030000 		.4byte	.LASF36
 1477 00fb 01       		.byte	0x1
 1478 00fc 5E       		.byte	0x5e
 1479 00fd 00000000 		.4byte	.LFB3
 1480 0101 14020000 		.4byte	.LFE3-.LFB3
 1481 0105 01       		.uleb128 0x1
 1482 0106 9C       		.byte	0x9c
 1483 0107 47010000 		.4byte	0x147
 1484 010b 09       		.uleb128 0x9
ARM GAS  C:\Users\jsing\AppData\Local\Temp\ccIpowyF.s 			page 42


 1485 010c 8F030000 		.4byte	.LASF21
 1486 0110 01       		.byte	0x1
 1487 0111 60       		.byte	0x60
 1488 0112 81000000 		.4byte	0x81
 1489 0116 02       		.uleb128 0x2
 1490 0117 91       		.byte	0x91
 1491 0118 6C       		.sleb128 -20
 1492 0119 09       		.uleb128 0x9
 1493 011a B9010000 		.4byte	.LASF22
 1494 011e 01       		.byte	0x1
 1495 011f 61       		.byte	0x61
 1496 0120 81000000 		.4byte	0x81
 1497 0124 02       		.uleb128 0x2
 1498 0125 91       		.byte	0x91
 1499 0126 64       		.sleb128 -28
 1500 0127 09       		.uleb128 0x9
 1501 0128 0F000000 		.4byte	.LASF23
 1502 012c 01       		.byte	0x1
 1503 012d 62       		.byte	0x62
 1504 012e 97000000 		.4byte	0x97
 1505 0132 02       		.uleb128 0x2
 1506 0133 91       		.byte	0x91
 1507 0134 68       		.sleb128 -24
 1508 0135 09       		.uleb128 0x9
 1509 0136 2D000000 		.4byte	.LASF24
 1510 013a 01       		.byte	0x1
 1511 013b 65       		.byte	0x65
 1512 013c 57010000 		.4byte	0x157
 1513 0140 05       		.uleb128 0x5
 1514 0141 03       		.byte	0x3
 1515 0142 0C000000 		.4byte	Sensor_ADC_InputsPlacement.4747
 1516 0146 00       		.byte	0
 1517 0147 0A       		.uleb128 0xa
 1518 0148 6B000000 		.4byte	0x6b
 1519 014c 57010000 		.4byte	0x157
 1520 0150 0B       		.uleb128 0xb
 1521 0151 DE000000 		.4byte	0xde
 1522 0155 02       		.byte	0x2
 1523 0156 00       		.byte	0
 1524 0157 0C       		.uleb128 0xc
 1525 0158 47010000 		.4byte	0x147
 1526 015c 0D       		.uleb128 0xd
 1527 015d 9F030000 		.4byte	.LASF26
 1528 0161 01       		.byte	0x1
 1529 0162 2A01     		.2byte	0x12a
 1530 0164 00000000 		.4byte	.LFB4
 1531 0168 38000000 		.4byte	.LFE4-.LFB4
 1532 016c 01       		.uleb128 0x1
 1533 016d 9C       		.byte	0x9c
 1534 016e 0E       		.uleb128 0xe
 1535 016f DA010000 		.4byte	.LASF27
 1536 0173 01       		.byte	0x1
 1537 0174 4D01     		.2byte	0x14d
 1538 0176 00000000 		.4byte	.LFB5
 1539 017a 18000000 		.4byte	.LFE5-.LFB5
 1540 017e 01       		.uleb128 0x1
 1541 017f 9C       		.byte	0x9c
ARM GAS  C:\Users\jsing\AppData\Local\Temp\ccIpowyF.s 			page 43


 1542 0180 0E       		.uleb128 0xe
 1543 0181 EA010000 		.4byte	.LASF28
 1544 0185 01       		.byte	0x1
 1545 0186 6701     		.2byte	0x167
 1546 0188 00000000 		.4byte	.LFB6
 1547 018c 1C000000 		.4byte	.LFE6-.LFB6
 1548 0190 01       		.uleb128 0x1
 1549 0191 9C       		.byte	0x9c
 1550 0192 0E       		.uleb128 0xe
 1551 0193 C3010000 		.4byte	.LASF29
 1552 0197 01       		.byte	0x1
 1553 0198 8001     		.2byte	0x180
 1554 019a 00000000 		.4byte	.LFB7
 1555 019e 1C000000 		.4byte	.LFE7-.LFB7
 1556 01a2 01       		.uleb128 0x1
 1557 01a3 9C       		.byte	0x9c
 1558 01a4 0F       		.uleb128 0xf
 1559 01a5 54020000 		.4byte	.LASF31
 1560 01a9 01       		.byte	0x1
 1561 01aa A201     		.2byte	0x1a2
 1562 01ac 81000000 		.4byte	0x81
 1563 01b0 00000000 		.4byte	.LFB8
 1564 01b4 48000000 		.4byte	.LFE8-.LFB8
 1565 01b8 01       		.uleb128 0x1
 1566 01b9 9C       		.byte	0x9c
 1567 01ba DD010000 		.4byte	0x1dd
 1568 01be 10       		.uleb128 0x10
 1569 01bf 85010000 		.4byte	.LASF33
 1570 01c3 01       		.byte	0x1
 1571 01c4 A201     		.2byte	0x1a2
 1572 01c6 81000000 		.4byte	0x81
 1573 01ca 02       		.uleb128 0x2
 1574 01cb 91       		.byte	0x91
 1575 01cc 6C       		.sleb128 -20
 1576 01cd 11       		.uleb128 0x11
 1577 01ce FE030000 		.4byte	.LASF30
 1578 01d2 01       		.byte	0x1
 1579 01d3 A401     		.2byte	0x1a4
 1580 01d5 81000000 		.4byte	0x81
 1581 01d9 02       		.uleb128 0x2
 1582 01da 91       		.byte	0x91
 1583 01db 74       		.sleb128 -12
 1584 01dc 00       		.byte	0
 1585 01dd 12       		.uleb128 0x12
 1586 01de 37010000 		.4byte	.LASF32
 1587 01e2 01       		.byte	0x1
 1588 01e3 D801     		.2byte	0x1d8
 1589 01e5 8C000000 		.4byte	0x8c
 1590 01e9 00000000 		.4byte	.LFB9
 1591 01ed 44000000 		.4byte	.LFE9-.LFB9
 1592 01f1 01       		.uleb128 0x1
 1593 01f2 9C       		.byte	0x9c
 1594 01f3 16020000 		.4byte	0x216
 1595 01f7 10       		.uleb128 0x10
 1596 01f8 95030000 		.4byte	.LASF34
 1597 01fc 01       		.byte	0x1
 1598 01fd D801     		.2byte	0x1d8
ARM GAS  C:\Users\jsing\AppData\Local\Temp\ccIpowyF.s 			page 44


 1599 01ff 81000000 		.4byte	0x81
 1600 0203 02       		.uleb128 0x2
 1601 0204 91       		.byte	0x91
 1602 0205 6C       		.sleb128 -20
 1603 0206 11       		.uleb128 0x11
 1604 0207 61040000 		.4byte	.LASF35
 1605 020b 01       		.byte	0x1
 1606 020c DA01     		.2byte	0x1da
 1607 020e 81000000 		.4byte	0x81
 1608 0212 02       		.uleb128 0x2
 1609 0213 91       		.byte	0x91
 1610 0214 74       		.sleb128 -12
 1611 0215 00       		.byte	0
 1612 0216 13       		.uleb128 0x13
 1613 0217 6F020000 		.4byte	.LASF37
 1614 021b 01       		.byte	0x1
 1615 021c 0502     		.2byte	0x205
 1616 021e 00000000 		.4byte	.LFB10
 1617 0222 1C000000 		.4byte	.LFE10-.LFB10
 1618 0226 01       		.uleb128 0x1
 1619 0227 9C       		.byte	0x9c
 1620 0228 3C020000 		.4byte	0x23c
 1621 022c 10       		.uleb128 0x10
 1622 022d 6D010000 		.4byte	.LASF38
 1623 0231 01       		.byte	0x1
 1624 0232 0502     		.2byte	0x205
 1625 0234 81000000 		.4byte	0x81
 1626 0238 02       		.uleb128 0x2
 1627 0239 91       		.byte	0x91
 1628 023a 74       		.sleb128 -12
 1629 023b 00       		.byte	0
 1630 023c 13       		.uleb128 0x13
 1631 023d 21030000 		.4byte	.LASF39
 1632 0241 01       		.byte	0x1
 1633 0242 3102     		.2byte	0x231
 1634 0244 00000000 		.4byte	.LFB11
 1635 0248 30000000 		.4byte	.LFE11-.LFB11
 1636 024c 01       		.uleb128 0x1
 1637 024d 9C       		.byte	0x9c
 1638 024e 62020000 		.4byte	0x262
 1639 0252 10       		.uleb128 0x10
 1640 0253 4B020000 		.4byte	.LASF40
 1641 0257 01       		.byte	0x1
 1642 0258 3102     		.2byte	0x231
 1643 025a 81000000 		.4byte	0x81
 1644 025e 02       		.uleb128 0x2
 1645 025f 91       		.byte	0x91
 1646 0260 74       		.sleb128 -12
 1647 0261 00       		.byte	0
 1648 0262 13       		.uleb128 0x13
 1649 0263 22020000 		.4byte	.LASF41
 1650 0267 01       		.byte	0x1
 1651 0268 4602     		.2byte	0x246
 1652 026a 00000000 		.4byte	.LFB12
 1653 026e 2C000000 		.4byte	.LFE12-.LFB12
 1654 0272 01       		.uleb128 0x1
 1655 0273 9C       		.byte	0x9c
ARM GAS  C:\Users\jsing\AppData\Local\Temp\ccIpowyF.s 			page 45


 1656 0274 88020000 		.4byte	0x288
 1657 0278 10       		.uleb128 0x10
 1658 0279 38030000 		.4byte	.LASF42
 1659 027d 01       		.byte	0x1
 1660 027e 4602     		.2byte	0x246
 1661 0280 81000000 		.4byte	0x81
 1662 0284 02       		.uleb128 0x2
 1663 0285 91       		.byte	0x91
 1664 0286 74       		.sleb128 -12
 1665 0287 00       		.byte	0
 1666 0288 13       		.uleb128 0x13
 1667 0289 55010000 		.4byte	.LASF43
 1668 028d 01       		.byte	0x1
 1669 028e 5E02     		.2byte	0x25e
 1670 0290 00000000 		.4byte	.LFB13
 1671 0294 1C000000 		.4byte	.LFE13-.LFB13
 1672 0298 01       		.uleb128 0x1
 1673 0299 9C       		.byte	0x9c
 1674 029a AE020000 		.4byte	0x2ae
 1675 029e 10       		.uleb128 0x10
 1676 029f 6D010000 		.4byte	.LASF38
 1677 02a3 01       		.byte	0x1
 1678 02a4 5E02     		.2byte	0x25e
 1679 02a6 81000000 		.4byte	0x81
 1680 02aa 02       		.uleb128 0x2
 1681 02ab 91       		.byte	0x91
 1682 02ac 74       		.sleb128 -12
 1683 02ad 00       		.byte	0
 1684 02ae 13       		.uleb128 0x13
 1685 02af 4B040000 		.4byte	.LASF44
 1686 02b3 01       		.byte	0x1
 1687 02b4 7502     		.2byte	0x275
 1688 02b6 00000000 		.4byte	.LFB14
 1689 02ba 1C000000 		.4byte	.LFE14-.LFB14
 1690 02be 01       		.uleb128 0x1
 1691 02bf 9C       		.byte	0x9c
 1692 02c0 D4020000 		.4byte	0x2d4
 1693 02c4 10       		.uleb128 0x10
 1694 02c5 6D010000 		.4byte	.LASF38
 1695 02c9 01       		.byte	0x1
 1696 02ca 7502     		.2byte	0x275
 1697 02cc 81000000 		.4byte	0x81
 1698 02d0 02       		.uleb128 0x2
 1699 02d1 91       		.byte	0x91
 1700 02d2 74       		.sleb128 -12
 1701 02d3 00       		.byte	0
 1702 02d4 14       		.uleb128 0x14
 1703 02d5 15010000 		.4byte	.LASF45
 1704 02d9 01       		.byte	0x1
 1705 02da 9102     		.2byte	0x291
 1706 02dc 00000000 		.4byte	.LFB15
 1707 02e0 30000000 		.4byte	.LFE15-.LFB15
 1708 02e4 01       		.uleb128 0x1
 1709 02e5 9C       		.byte	0x9c
 1710 02e6 09030000 		.4byte	0x309
 1711 02ea 10       		.uleb128 0x10
 1712 02eb 95030000 		.4byte	.LASF34
ARM GAS  C:\Users\jsing\AppData\Local\Temp\ccIpowyF.s 			page 46


 1713 02ef 01       		.byte	0x1
 1714 02f0 9102     		.2byte	0x291
 1715 02f2 81000000 		.4byte	0x81
 1716 02f6 02       		.uleb128 0x2
 1717 02f7 91       		.byte	0x91
 1718 02f8 74       		.sleb128 -12
 1719 02f9 10       		.uleb128 0x10
 1720 02fa C1030000 		.4byte	.LASF46
 1721 02fe 01       		.byte	0x1
 1722 02ff 9102     		.2byte	0x291
 1723 0301 8C000000 		.4byte	0x8c
 1724 0305 02       		.uleb128 0x2
 1725 0306 91       		.byte	0x91
 1726 0307 72       		.sleb128 -14
 1727 0308 00       		.byte	0
 1728 0309 14       		.uleb128 0x14
 1729 030a 0E030000 		.4byte	.LASF47
 1730 030e 01       		.byte	0x1
 1731 030f B302     		.2byte	0x2b3
 1732 0311 00000000 		.4byte	.LFB16
 1733 0315 2C000000 		.4byte	.LFE16-.LFB16
 1734 0319 01       		.uleb128 0x1
 1735 031a 9C       		.byte	0x9c
 1736 031b 3E030000 		.4byte	0x33e
 1737 031f 10       		.uleb128 0x10
 1738 0320 95030000 		.4byte	.LASF34
 1739 0324 01       		.byte	0x1
 1740 0325 B302     		.2byte	0x2b3
 1741 0327 81000000 		.4byte	0x81
 1742 032b 02       		.uleb128 0x2
 1743 032c 91       		.byte	0x91
 1744 032d 74       		.sleb128 -12
 1745 032e 10       		.uleb128 0x10
 1746 032f 07000000 		.4byte	.LASF48
 1747 0333 01       		.byte	0x1
 1748 0334 B302     		.2byte	0x2b3
 1749 0336 97000000 		.4byte	0x97
 1750 033a 02       		.uleb128 0x2
 1751 033b 91       		.byte	0x91
 1752 033c 70       		.sleb128 -16
 1753 033d 00       		.byte	0
 1754 033e 12       		.uleb128 0x12
 1755 033f 42030000 		.4byte	.LASF49
 1756 0343 01       		.byte	0x1
 1757 0344 D402     		.2byte	0x2d4
 1758 0346 8C000000 		.4byte	0x8c
 1759 034a 00000000 		.4byte	.LFB17
 1760 034e C8000000 		.4byte	.LFE17-.LFB17
 1761 0352 01       		.uleb128 0x1
 1762 0353 9C       		.byte	0x9c
 1763 0354 86030000 		.4byte	0x386
 1764 0358 10       		.uleb128 0x10
 1765 0359 95030000 		.4byte	.LASF34
 1766 035d 01       		.byte	0x1
 1767 035e D402     		.2byte	0x2d4
 1768 0360 81000000 		.4byte	0x81
 1769 0364 02       		.uleb128 0x2
ARM GAS  C:\Users\jsing\AppData\Local\Temp\ccIpowyF.s 			page 47


 1770 0365 91       		.byte	0x91
 1771 0366 6C       		.sleb128 -20
 1772 0367 10       		.uleb128 0x10
 1773 0368 D9030000 		.4byte	.LASF50
 1774 036c 01       		.byte	0x1
 1775 036d D402     		.2byte	0x2d4
 1776 036f 8C000000 		.4byte	0x8c
 1777 0373 02       		.uleb128 0x2
 1778 0374 91       		.byte	0x91
 1779 0375 6A       		.sleb128 -22
 1780 0376 11       		.uleb128 0x11
 1781 0377 15020000 		.4byte	.LASF51
 1782 037b 01       		.byte	0x1
 1783 037c D602     		.2byte	0x2d6
 1784 037e 8C000000 		.4byte	0x8c
 1785 0382 02       		.uleb128 0x2
 1786 0383 91       		.byte	0x91
 1787 0384 76       		.sleb128 -10
 1788 0385 00       		.byte	0
 1789 0386 12       		.uleb128 0x12
 1790 0387 FA000000 		.4byte	.LASF52
 1791 038b 01       		.byte	0x1
 1792 038c 0A03     		.2byte	0x30a
 1793 038e 97000000 		.4byte	0x97
 1794 0392 00000000 		.4byte	.LFB18
 1795 0396 BC000000 		.4byte	.LFE18-.LFB18
 1796 039a 01       		.uleb128 0x1
 1797 039b 9C       		.byte	0x9c
 1798 039c CE030000 		.4byte	0x3ce
 1799 03a0 10       		.uleb128 0x10
 1800 03a1 95030000 		.4byte	.LASF34
 1801 03a5 01       		.byte	0x1
 1802 03a6 0A03     		.2byte	0x30a
 1803 03a8 81000000 		.4byte	0x81
 1804 03ac 02       		.uleb128 0x2
 1805 03ad 91       		.byte	0x91
 1806 03ae 64       		.sleb128 -28
 1807 03af 10       		.uleb128 0x10
 1808 03b0 D9030000 		.4byte	.LASF50
 1809 03b4 01       		.byte	0x1
 1810 03b5 0A03     		.2byte	0x30a
 1811 03b7 8C000000 		.4byte	0x8c
 1812 03bb 02       		.uleb128 0x2
 1813 03bc 91       		.byte	0x91
 1814 03bd 62       		.sleb128 -30
 1815 03be 11       		.uleb128 0x11
 1816 03bf 9A010000 		.4byte	.LASF53
 1817 03c3 01       		.byte	0x1
 1818 03c4 0C03     		.2byte	0x30c
 1819 03c6 BB000000 		.4byte	0xbb
 1820 03ca 02       		.uleb128 0x2
 1821 03cb 91       		.byte	0x91
 1822 03cc 68       		.sleb128 -24
 1823 03cd 00       		.byte	0
 1824 03ce 12       		.uleb128 0x12
 1825 03cf 0B040000 		.4byte	.LASF54
 1826 03d3 01       		.byte	0x1
ARM GAS  C:\Users\jsing\AppData\Local\Temp\ccIpowyF.s 			page 48


 1827 03d4 3703     		.2byte	0x337
 1828 03d6 A2000000 		.4byte	0xa2
 1829 03da 00000000 		.4byte	.LFB19
 1830 03de A4000000 		.4byte	.LFE19-.LFB19
 1831 03e2 01       		.uleb128 0x1
 1832 03e3 9C       		.byte	0x9c
 1833 03e4 16040000 		.4byte	0x416
 1834 03e8 10       		.uleb128 0x10
 1835 03e9 95030000 		.4byte	.LASF34
 1836 03ed 01       		.byte	0x1
 1837 03ee 3703     		.2byte	0x337
 1838 03f0 81000000 		.4byte	0x81
 1839 03f4 02       		.uleb128 0x2
 1840 03f5 91       		.byte	0x91
 1841 03f6 64       		.sleb128 -28
 1842 03f7 10       		.uleb128 0x10
 1843 03f8 D9030000 		.4byte	.LASF50
 1844 03fc 01       		.byte	0x1
 1845 03fd 3703     		.2byte	0x337
 1846 03ff 8C000000 		.4byte	0x8c
 1847 0403 02       		.uleb128 0x2
 1848 0404 91       		.byte	0x91
 1849 0405 62       		.sleb128 -30
 1850 0406 11       		.uleb128 0x11
 1851 0407 B3010000 		.4byte	.LASF55
 1852 040b 01       		.byte	0x1
 1853 040c 3903     		.2byte	0x339
 1854 040e A2000000 		.4byte	0xa2
 1855 0412 02       		.uleb128 0x2
 1856 0413 91       		.byte	0x91
 1857 0414 6C       		.sleb128 -20
 1858 0415 00       		.byte	0
 1859 0416 0A       		.uleb128 0xa
 1860 0417 81000000 		.4byte	0x81
 1861 041b 26040000 		.4byte	0x426
 1862 041f 0B       		.uleb128 0xb
 1863 0420 DE000000 		.4byte	0xde
 1864 0424 02       		.byte	0x2
 1865 0425 00       		.byte	0
 1866 0426 09       		.uleb128 0x9
 1867 0427 6B030000 		.4byte	.LASF56
 1868 042b 01       		.byte	0x1
 1869 042c 21       		.byte	0x21
 1870 042d 37040000 		.4byte	0x437
 1871 0431 05       		.uleb128 0x5
 1872 0432 03       		.byte	0x3
 1873 0433 00000000 		.4byte	Sensor_ADC_channelsConfig
 1874 0437 0C       		.uleb128 0xc
 1875 0438 16040000 		.4byte	0x416
 1876 043c 15       		.uleb128 0x15
 1877 043d 72010000 		.4byte	.LASF57
 1878 0441 01       		.byte	0x1
 1879 0442 18       		.byte	0x18
 1880 0443 6B000000 		.4byte	0x6b
 1881 0447 05       		.uleb128 0x5
 1882 0448 03       		.byte	0x3
 1883 0449 00000000 		.4byte	Sensor_ADC_initVar
ARM GAS  C:\Users\jsing\AppData\Local\Temp\ccIpowyF.s 			page 49


 1884 044d 0A       		.uleb128 0xa
 1885 044e 8C000000 		.4byte	0x8c
 1886 0452 5D040000 		.4byte	0x45d
 1887 0456 0B       		.uleb128 0xb
 1888 0457 DE000000 		.4byte	0xde
 1889 045b 02       		.byte	0x2
 1890 045c 00       		.byte	0
 1891 045d 15       		.uleb128 0x15
 1892 045e D9000000 		.4byte	.LASF58
 1893 0462 01       		.byte	0x1
 1894 0463 19       		.byte	0x19
 1895 0464 6E040000 		.4byte	0x46e
 1896 0468 05       		.uleb128 0x5
 1897 0469 03       		.byte	0x3
 1898 046a 00000000 		.4byte	Sensor_ADC_offset
 1899 046e 06       		.uleb128 0x6
 1900 046f 4D040000 		.4byte	0x44d
 1901 0473 0A       		.uleb128 0xa
 1902 0474 97000000 		.4byte	0x97
 1903 0478 83040000 		.4byte	0x483
 1904 047c 0B       		.uleb128 0xb
 1905 047d DE000000 		.4byte	0xde
 1906 0481 02       		.byte	0x2
 1907 0482 00       		.byte	0
 1908 0483 15       		.uleb128 0x15
 1909 0484 E3030000 		.4byte	.LASF59
 1910 0488 01       		.byte	0x1
 1911 0489 1A       		.byte	0x1a
 1912 048a 94040000 		.4byte	0x494
 1913 048e 05       		.uleb128 0x5
 1914 048f 03       		.byte	0x3
 1915 0490 00000000 		.4byte	Sensor_ADC_countsPer10Volt
 1916 0494 06       		.uleb128 0x6
 1917 0495 73040000 		.4byte	0x473
 1918 0499 00       		.byte	0
 1919              		.section	.debug_abbrev,"",%progbits
 1920              	.Ldebug_abbrev0:
 1921 0000 01       		.uleb128 0x1
 1922 0001 11       		.uleb128 0x11
 1923 0002 01       		.byte	0x1
 1924 0003 25       		.uleb128 0x25
 1925 0004 0E       		.uleb128 0xe
 1926 0005 13       		.uleb128 0x13
 1927 0006 0B       		.uleb128 0xb
 1928 0007 03       		.uleb128 0x3
 1929 0008 0E       		.uleb128 0xe
 1930 0009 1B       		.uleb128 0x1b
 1931 000a 0E       		.uleb128 0xe
 1932 000b 55       		.uleb128 0x55
 1933 000c 17       		.uleb128 0x17
 1934 000d 11       		.uleb128 0x11
 1935 000e 01       		.uleb128 0x1
 1936 000f 10       		.uleb128 0x10
 1937 0010 17       		.uleb128 0x17
 1938 0011 00       		.byte	0
 1939 0012 00       		.byte	0
 1940 0013 02       		.uleb128 0x2
ARM GAS  C:\Users\jsing\AppData\Local\Temp\ccIpowyF.s 			page 50


 1941 0014 24       		.uleb128 0x24
 1942 0015 00       		.byte	0
 1943 0016 0B       		.uleb128 0xb
 1944 0017 0B       		.uleb128 0xb
 1945 0018 3E       		.uleb128 0x3e
 1946 0019 0B       		.uleb128 0xb
 1947 001a 03       		.uleb128 0x3
 1948 001b 0E       		.uleb128 0xe
 1949 001c 00       		.byte	0
 1950 001d 00       		.byte	0
 1951 001e 03       		.uleb128 0x3
 1952 001f 24       		.uleb128 0x24
 1953 0020 00       		.byte	0
 1954 0021 0B       		.uleb128 0xb
 1955 0022 0B       		.uleb128 0xb
 1956 0023 3E       		.uleb128 0x3e
 1957 0024 0B       		.uleb128 0xb
 1958 0025 03       		.uleb128 0x3
 1959 0026 08       		.uleb128 0x8
 1960 0027 00       		.byte	0
 1961 0028 00       		.byte	0
 1962 0029 04       		.uleb128 0x4
 1963 002a 16       		.uleb128 0x16
 1964 002b 00       		.byte	0
 1965 002c 03       		.uleb128 0x3
 1966 002d 0E       		.uleb128 0xe
 1967 002e 3A       		.uleb128 0x3a
 1968 002f 0B       		.uleb128 0xb
 1969 0030 3B       		.uleb128 0x3b
 1970 0031 0B       		.uleb128 0xb
 1971 0032 49       		.uleb128 0x49
 1972 0033 13       		.uleb128 0x13
 1973 0034 00       		.byte	0
 1974 0035 00       		.byte	0
 1975 0036 05       		.uleb128 0x5
 1976 0037 16       		.uleb128 0x16
 1977 0038 00       		.byte	0
 1978 0039 03       		.uleb128 0x3
 1979 003a 0E       		.uleb128 0xe
 1980 003b 3A       		.uleb128 0x3a
 1981 003c 0B       		.uleb128 0xb
 1982 003d 3B       		.uleb128 0x3b
 1983 003e 05       		.uleb128 0x5
 1984 003f 49       		.uleb128 0x49
 1985 0040 13       		.uleb128 0x13
 1986 0041 00       		.byte	0
 1987 0042 00       		.byte	0
 1988 0043 06       		.uleb128 0x6
 1989 0044 35       		.uleb128 0x35
 1990 0045 00       		.byte	0
 1991 0046 49       		.uleb128 0x49
 1992 0047 13       		.uleb128 0x13
 1993 0048 00       		.byte	0
 1994 0049 00       		.byte	0
 1995 004a 07       		.uleb128 0x7
 1996 004b 2E       		.uleb128 0x2e
 1997 004c 00       		.byte	0
ARM GAS  C:\Users\jsing\AppData\Local\Temp\ccIpowyF.s 			page 51


 1998 004d 3F       		.uleb128 0x3f
 1999 004e 19       		.uleb128 0x19
 2000 004f 03       		.uleb128 0x3
 2001 0050 0E       		.uleb128 0xe
 2002 0051 3A       		.uleb128 0x3a
 2003 0052 0B       		.uleb128 0xb
 2004 0053 3B       		.uleb128 0x3b
 2005 0054 0B       		.uleb128 0xb
 2006 0055 27       		.uleb128 0x27
 2007 0056 19       		.uleb128 0x19
 2008 0057 11       		.uleb128 0x11
 2009 0058 01       		.uleb128 0x1
 2010 0059 12       		.uleb128 0x12
 2011 005a 06       		.uleb128 0x6
 2012 005b 40       		.uleb128 0x40
 2013 005c 18       		.uleb128 0x18
 2014 005d 9642     		.uleb128 0x2116
 2015 005f 19       		.uleb128 0x19
 2016 0060 00       		.byte	0
 2017 0061 00       		.byte	0
 2018 0062 08       		.uleb128 0x8
 2019 0063 2E       		.uleb128 0x2e
 2020 0064 01       		.byte	0x1
 2021 0065 3F       		.uleb128 0x3f
 2022 0066 19       		.uleb128 0x19
 2023 0067 03       		.uleb128 0x3
 2024 0068 0E       		.uleb128 0xe
 2025 0069 3A       		.uleb128 0x3a
 2026 006a 0B       		.uleb128 0xb
 2027 006b 3B       		.uleb128 0x3b
 2028 006c 0B       		.uleb128 0xb
 2029 006d 27       		.uleb128 0x27
 2030 006e 19       		.uleb128 0x19
 2031 006f 11       		.uleb128 0x11
 2032 0070 01       		.uleb128 0x1
 2033 0071 12       		.uleb128 0x12
 2034 0072 06       		.uleb128 0x6
 2035 0073 40       		.uleb128 0x40
 2036 0074 18       		.uleb128 0x18
 2037 0075 9642     		.uleb128 0x2116
 2038 0077 19       		.uleb128 0x19
 2039 0078 01       		.uleb128 0x1
 2040 0079 13       		.uleb128 0x13
 2041 007a 00       		.byte	0
 2042 007b 00       		.byte	0
 2043 007c 09       		.uleb128 0x9
 2044 007d 34       		.uleb128 0x34
 2045 007e 00       		.byte	0
 2046 007f 03       		.uleb128 0x3
 2047 0080 0E       		.uleb128 0xe
 2048 0081 3A       		.uleb128 0x3a
 2049 0082 0B       		.uleb128 0xb
 2050 0083 3B       		.uleb128 0x3b
 2051 0084 0B       		.uleb128 0xb
 2052 0085 49       		.uleb128 0x49
 2053 0086 13       		.uleb128 0x13
 2054 0087 02       		.uleb128 0x2
ARM GAS  C:\Users\jsing\AppData\Local\Temp\ccIpowyF.s 			page 52


 2055 0088 18       		.uleb128 0x18
 2056 0089 00       		.byte	0
 2057 008a 00       		.byte	0
 2058 008b 0A       		.uleb128 0xa
 2059 008c 01       		.uleb128 0x1
 2060 008d 01       		.byte	0x1
 2061 008e 49       		.uleb128 0x49
 2062 008f 13       		.uleb128 0x13
 2063 0090 01       		.uleb128 0x1
 2064 0091 13       		.uleb128 0x13
 2065 0092 00       		.byte	0
 2066 0093 00       		.byte	0
 2067 0094 0B       		.uleb128 0xb
 2068 0095 21       		.uleb128 0x21
 2069 0096 00       		.byte	0
 2070 0097 49       		.uleb128 0x49
 2071 0098 13       		.uleb128 0x13
 2072 0099 2F       		.uleb128 0x2f
 2073 009a 0B       		.uleb128 0xb
 2074 009b 00       		.byte	0
 2075 009c 00       		.byte	0
 2076 009d 0C       		.uleb128 0xc
 2077 009e 26       		.uleb128 0x26
 2078 009f 00       		.byte	0
 2079 00a0 49       		.uleb128 0x49
 2080 00a1 13       		.uleb128 0x13
 2081 00a2 00       		.byte	0
 2082 00a3 00       		.byte	0
 2083 00a4 0D       		.uleb128 0xd
 2084 00a5 2E       		.uleb128 0x2e
 2085 00a6 00       		.byte	0
 2086 00a7 3F       		.uleb128 0x3f
 2087 00a8 19       		.uleb128 0x19
 2088 00a9 03       		.uleb128 0x3
 2089 00aa 0E       		.uleb128 0xe
 2090 00ab 3A       		.uleb128 0x3a
 2091 00ac 0B       		.uleb128 0xb
 2092 00ad 3B       		.uleb128 0x3b
 2093 00ae 05       		.uleb128 0x5
 2094 00af 27       		.uleb128 0x27
 2095 00b0 19       		.uleb128 0x19
 2096 00b1 11       		.uleb128 0x11
 2097 00b2 01       		.uleb128 0x1
 2098 00b3 12       		.uleb128 0x12
 2099 00b4 06       		.uleb128 0x6
 2100 00b5 40       		.uleb128 0x40
 2101 00b6 18       		.uleb128 0x18
 2102 00b7 9642     		.uleb128 0x2116
 2103 00b9 19       		.uleb128 0x19
 2104 00ba 00       		.byte	0
 2105 00bb 00       		.byte	0
 2106 00bc 0E       		.uleb128 0xe
 2107 00bd 2E       		.uleb128 0x2e
 2108 00be 00       		.byte	0
 2109 00bf 3F       		.uleb128 0x3f
 2110 00c0 19       		.uleb128 0x19
 2111 00c1 03       		.uleb128 0x3
ARM GAS  C:\Users\jsing\AppData\Local\Temp\ccIpowyF.s 			page 53


 2112 00c2 0E       		.uleb128 0xe
 2113 00c3 3A       		.uleb128 0x3a
 2114 00c4 0B       		.uleb128 0xb
 2115 00c5 3B       		.uleb128 0x3b
 2116 00c6 05       		.uleb128 0x5
 2117 00c7 27       		.uleb128 0x27
 2118 00c8 19       		.uleb128 0x19
 2119 00c9 11       		.uleb128 0x11
 2120 00ca 01       		.uleb128 0x1
 2121 00cb 12       		.uleb128 0x12
 2122 00cc 06       		.uleb128 0x6
 2123 00cd 40       		.uleb128 0x40
 2124 00ce 18       		.uleb128 0x18
 2125 00cf 9742     		.uleb128 0x2117
 2126 00d1 19       		.uleb128 0x19
 2127 00d2 00       		.byte	0
 2128 00d3 00       		.byte	0
 2129 00d4 0F       		.uleb128 0xf
 2130 00d5 2E       		.uleb128 0x2e
 2131 00d6 01       		.byte	0x1
 2132 00d7 3F       		.uleb128 0x3f
 2133 00d8 19       		.uleb128 0x19
 2134 00d9 03       		.uleb128 0x3
 2135 00da 0E       		.uleb128 0xe
 2136 00db 3A       		.uleb128 0x3a
 2137 00dc 0B       		.uleb128 0xb
 2138 00dd 3B       		.uleb128 0x3b
 2139 00de 05       		.uleb128 0x5
 2140 00df 27       		.uleb128 0x27
 2141 00e0 19       		.uleb128 0x19
 2142 00e1 49       		.uleb128 0x49
 2143 00e2 13       		.uleb128 0x13
 2144 00e3 11       		.uleb128 0x11
 2145 00e4 01       		.uleb128 0x1
 2146 00e5 12       		.uleb128 0x12
 2147 00e6 06       		.uleb128 0x6
 2148 00e7 40       		.uleb128 0x40
 2149 00e8 18       		.uleb128 0x18
 2150 00e9 9742     		.uleb128 0x2117
 2151 00eb 19       		.uleb128 0x19
 2152 00ec 01       		.uleb128 0x1
 2153 00ed 13       		.uleb128 0x13
 2154 00ee 00       		.byte	0
 2155 00ef 00       		.byte	0
 2156 00f0 10       		.uleb128 0x10
 2157 00f1 05       		.uleb128 0x5
 2158 00f2 00       		.byte	0
 2159 00f3 03       		.uleb128 0x3
 2160 00f4 0E       		.uleb128 0xe
 2161 00f5 3A       		.uleb128 0x3a
 2162 00f6 0B       		.uleb128 0xb
 2163 00f7 3B       		.uleb128 0x3b
 2164 00f8 05       		.uleb128 0x5
 2165 00f9 49       		.uleb128 0x49
 2166 00fa 13       		.uleb128 0x13
 2167 00fb 02       		.uleb128 0x2
 2168 00fc 18       		.uleb128 0x18
ARM GAS  C:\Users\jsing\AppData\Local\Temp\ccIpowyF.s 			page 54


 2169 00fd 00       		.byte	0
 2170 00fe 00       		.byte	0
 2171 00ff 11       		.uleb128 0x11
 2172 0100 34       		.uleb128 0x34
 2173 0101 00       		.byte	0
 2174 0102 03       		.uleb128 0x3
 2175 0103 0E       		.uleb128 0xe
 2176 0104 3A       		.uleb128 0x3a
 2177 0105 0B       		.uleb128 0xb
 2178 0106 3B       		.uleb128 0x3b
 2179 0107 05       		.uleb128 0x5
 2180 0108 49       		.uleb128 0x49
 2181 0109 13       		.uleb128 0x13
 2182 010a 02       		.uleb128 0x2
 2183 010b 18       		.uleb128 0x18
 2184 010c 00       		.byte	0
 2185 010d 00       		.byte	0
 2186 010e 12       		.uleb128 0x12
 2187 010f 2E       		.uleb128 0x2e
 2188 0110 01       		.byte	0x1
 2189 0111 3F       		.uleb128 0x3f
 2190 0112 19       		.uleb128 0x19
 2191 0113 03       		.uleb128 0x3
 2192 0114 0E       		.uleb128 0xe
 2193 0115 3A       		.uleb128 0x3a
 2194 0116 0B       		.uleb128 0xb
 2195 0117 3B       		.uleb128 0x3b
 2196 0118 05       		.uleb128 0x5
 2197 0119 27       		.uleb128 0x27
 2198 011a 19       		.uleb128 0x19
 2199 011b 49       		.uleb128 0x49
 2200 011c 13       		.uleb128 0x13
 2201 011d 11       		.uleb128 0x11
 2202 011e 01       		.uleb128 0x1
 2203 011f 12       		.uleb128 0x12
 2204 0120 06       		.uleb128 0x6
 2205 0121 40       		.uleb128 0x40
 2206 0122 18       		.uleb128 0x18
 2207 0123 9642     		.uleb128 0x2116
 2208 0125 19       		.uleb128 0x19
 2209 0126 01       		.uleb128 0x1
 2210 0127 13       		.uleb128 0x13
 2211 0128 00       		.byte	0
 2212 0129 00       		.byte	0
 2213 012a 13       		.uleb128 0x13
 2214 012b 2E       		.uleb128 0x2e
 2215 012c 01       		.byte	0x1
 2216 012d 3F       		.uleb128 0x3f
 2217 012e 19       		.uleb128 0x19
 2218 012f 03       		.uleb128 0x3
 2219 0130 0E       		.uleb128 0xe
 2220 0131 3A       		.uleb128 0x3a
 2221 0132 0B       		.uleb128 0xb
 2222 0133 3B       		.uleb128 0x3b
 2223 0134 05       		.uleb128 0x5
 2224 0135 27       		.uleb128 0x27
 2225 0136 19       		.uleb128 0x19
ARM GAS  C:\Users\jsing\AppData\Local\Temp\ccIpowyF.s 			page 55


 2226 0137 11       		.uleb128 0x11
 2227 0138 01       		.uleb128 0x1
 2228 0139 12       		.uleb128 0x12
 2229 013a 06       		.uleb128 0x6
 2230 013b 40       		.uleb128 0x40
 2231 013c 18       		.uleb128 0x18
 2232 013d 9742     		.uleb128 0x2117
 2233 013f 19       		.uleb128 0x19
 2234 0140 01       		.uleb128 0x1
 2235 0141 13       		.uleb128 0x13
 2236 0142 00       		.byte	0
 2237 0143 00       		.byte	0
 2238 0144 14       		.uleb128 0x14
 2239 0145 2E       		.uleb128 0x2e
 2240 0146 01       		.byte	0x1
 2241 0147 3F       		.uleb128 0x3f
 2242 0148 19       		.uleb128 0x19
 2243 0149 03       		.uleb128 0x3
 2244 014a 0E       		.uleb128 0xe
 2245 014b 3A       		.uleb128 0x3a
 2246 014c 0B       		.uleb128 0xb
 2247 014d 3B       		.uleb128 0x3b
 2248 014e 05       		.uleb128 0x5
 2249 014f 27       		.uleb128 0x27
 2250 0150 19       		.uleb128 0x19
 2251 0151 11       		.uleb128 0x11
 2252 0152 01       		.uleb128 0x1
 2253 0153 12       		.uleb128 0x12
 2254 0154 06       		.uleb128 0x6
 2255 0155 40       		.uleb128 0x40
 2256 0156 18       		.uleb128 0x18
 2257 0157 9642     		.uleb128 0x2116
 2258 0159 19       		.uleb128 0x19
 2259 015a 01       		.uleb128 0x1
 2260 015b 13       		.uleb128 0x13
 2261 015c 00       		.byte	0
 2262 015d 00       		.byte	0
 2263 015e 15       		.uleb128 0x15
 2264 015f 34       		.uleb128 0x34
 2265 0160 00       		.byte	0
 2266 0161 03       		.uleb128 0x3
 2267 0162 0E       		.uleb128 0xe
 2268 0163 3A       		.uleb128 0x3a
 2269 0164 0B       		.uleb128 0xb
 2270 0165 3B       		.uleb128 0x3b
 2271 0166 0B       		.uleb128 0xb
 2272 0167 49       		.uleb128 0x49
 2273 0168 13       		.uleb128 0x13
 2274 0169 3F       		.uleb128 0x3f
 2275 016a 19       		.uleb128 0x19
 2276 016b 02       		.uleb128 0x2
 2277 016c 18       		.uleb128 0x18
 2278 016d 00       		.byte	0
 2279 016e 00       		.byte	0
 2280 016f 00       		.byte	0
 2281              		.section	.debug_aranges,"",%progbits
 2282 0000 A4000000 		.4byte	0xa4
ARM GAS  C:\Users\jsing\AppData\Local\Temp\ccIpowyF.s 			page 56


 2283 0004 0200     		.2byte	0x2
 2284 0006 00000000 		.4byte	.Ldebug_info0
 2285 000a 04       		.byte	0x4
 2286 000b 00       		.byte	0
 2287 000c 0000     		.2byte	0
 2288 000e 0000     		.2byte	0
 2289 0010 00000000 		.4byte	.LFB2
 2290 0014 24000000 		.4byte	.LFE2-.LFB2
 2291 0018 00000000 		.4byte	.LFB3
 2292 001c 14020000 		.4byte	.LFE3-.LFB3
 2293 0020 00000000 		.4byte	.LFB4
 2294 0024 38000000 		.4byte	.LFE4-.LFB4
 2295 0028 00000000 		.4byte	.LFB5
 2296 002c 18000000 		.4byte	.LFE5-.LFB5
 2297 0030 00000000 		.4byte	.LFB6
 2298 0034 1C000000 		.4byte	.LFE6-.LFB6
 2299 0038 00000000 		.4byte	.LFB7
 2300 003c 1C000000 		.4byte	.LFE7-.LFB7
 2301 0040 00000000 		.4byte	.LFB8
 2302 0044 48000000 		.4byte	.LFE8-.LFB8
 2303 0048 00000000 		.4byte	.LFB9
 2304 004c 44000000 		.4byte	.LFE9-.LFB9
 2305 0050 00000000 		.4byte	.LFB10
 2306 0054 1C000000 		.4byte	.LFE10-.LFB10
 2307 0058 00000000 		.4byte	.LFB11
 2308 005c 30000000 		.4byte	.LFE11-.LFB11
 2309 0060 00000000 		.4byte	.LFB12
 2310 0064 2C000000 		.4byte	.LFE12-.LFB12
 2311 0068 00000000 		.4byte	.LFB13
 2312 006c 1C000000 		.4byte	.LFE13-.LFB13
 2313 0070 00000000 		.4byte	.LFB14
 2314 0074 1C000000 		.4byte	.LFE14-.LFB14
 2315 0078 00000000 		.4byte	.LFB15
 2316 007c 30000000 		.4byte	.LFE15-.LFB15
 2317 0080 00000000 		.4byte	.LFB16
 2318 0084 2C000000 		.4byte	.LFE16-.LFB16
 2319 0088 00000000 		.4byte	.LFB17
 2320 008c C8000000 		.4byte	.LFE17-.LFB17
 2321 0090 00000000 		.4byte	.LFB18
 2322 0094 BC000000 		.4byte	.LFE18-.LFB18
 2323 0098 00000000 		.4byte	.LFB19
 2324 009c A4000000 		.4byte	.LFE19-.LFB19
 2325 00a0 00000000 		.4byte	0
 2326 00a4 00000000 		.4byte	0
 2327              		.section	.debug_ranges,"",%progbits
 2328              	.Ldebug_ranges0:
 2329 0000 00000000 		.4byte	.LFB2
 2330 0004 24000000 		.4byte	.LFE2
 2331 0008 00000000 		.4byte	.LFB3
 2332 000c 14020000 		.4byte	.LFE3
 2333 0010 00000000 		.4byte	.LFB4
 2334 0014 38000000 		.4byte	.LFE4
 2335 0018 00000000 		.4byte	.LFB5
 2336 001c 18000000 		.4byte	.LFE5
 2337 0020 00000000 		.4byte	.LFB6
 2338 0024 1C000000 		.4byte	.LFE6
 2339 0028 00000000 		.4byte	.LFB7
ARM GAS  C:\Users\jsing\AppData\Local\Temp\ccIpowyF.s 			page 57


 2340 002c 1C000000 		.4byte	.LFE7
 2341 0030 00000000 		.4byte	.LFB8
 2342 0034 48000000 		.4byte	.LFE8
 2343 0038 00000000 		.4byte	.LFB9
 2344 003c 44000000 		.4byte	.LFE9
 2345 0040 00000000 		.4byte	.LFB10
 2346 0044 1C000000 		.4byte	.LFE10
 2347 0048 00000000 		.4byte	.LFB11
 2348 004c 30000000 		.4byte	.LFE11
 2349 0050 00000000 		.4byte	.LFB12
 2350 0054 2C000000 		.4byte	.LFE12
 2351 0058 00000000 		.4byte	.LFB13
 2352 005c 1C000000 		.4byte	.LFE13
 2353 0060 00000000 		.4byte	.LFB14
 2354 0064 1C000000 		.4byte	.LFE14
 2355 0068 00000000 		.4byte	.LFB15
 2356 006c 30000000 		.4byte	.LFE15
 2357 0070 00000000 		.4byte	.LFB16
 2358 0074 2C000000 		.4byte	.LFE16
 2359 0078 00000000 		.4byte	.LFB17
 2360 007c C8000000 		.4byte	.LFE17
 2361 0080 00000000 		.4byte	.LFB18
 2362 0084 BC000000 		.4byte	.LFE18
 2363 0088 00000000 		.4byte	.LFB19
 2364 008c A4000000 		.4byte	.LFE19
 2365 0090 00000000 		.4byte	0
 2366 0094 00000000 		.4byte	0
 2367              		.section	.debug_line,"",%progbits
 2368              	.Ldebug_line0:
 2369 0000 8E020000 		.section	.debug_str,"MS",%progbits,1
 2369      02004900 
 2369      00000201 
 2369      FB0E0D00 
 2369      01010101 
 2370              	.LASF10:
 2371 0000 75696E74 		.ascii	"uint16\000"
 2371      313600
 2372              	.LASF48:
 2373 0007 61646347 		.ascii	"adcGain\000"
 2373      61696E00 
 2374              	.LASF23:
 2375 000f 636F756E 		.ascii	"counts\000"
 2375      747300
 2376              	.LASF7:
 2377 0016 6C6F6E67 		.ascii	"long long unsigned int\000"
 2377      206C6F6E 
 2377      6720756E 
 2377      7369676E 
 2377      65642069 
 2378              	.LASF24:
 2379 002d 53656E73 		.ascii	"Sensor_ADC_InputsPlacement\000"
 2379      6F725F41 
 2379      44435F49 
 2379      6E707574 
 2379      73506C61 
 2380              	.LASF62:
 2381 0048 443A5C55 		.ascii	"D:\\Users\\jsing\\Desktop\\Day047_Accelerometer_Con"
ARM GAS  C:\Users\jsing\AppData\Local\Temp\ccIpowyF.s 			page 58


 2381      73657273 
 2381      5C6A7369 
 2381      6E675C44 
 2381      65736B74 
 2382 0077 74726F6C 		.ascii	"trolled_Car\\Accelerometer_Controlled_Car\\PSoC_4_B"
 2382      6C65645F 
 2382      4361725C 
 2382      41636365 
 2382      6C65726F 
 2383 00a8 4C455F41 		.ascii	"LE_ACCELEROMETER.cydsn\000"
 2383      4343454C 
 2383      45524F4D 
 2383      45544552 
 2383      2E637964 
 2384              	.LASF6:
 2385 00bf 6C6F6E67 		.ascii	"long long int\000"
 2385      206C6F6E 
 2385      6720696E 
 2385      7400
 2386              	.LASF0:
 2387 00cd 7369676E 		.ascii	"signed char\000"
 2387      65642063 
 2387      68617200 
 2388              	.LASF58:
 2389 00d9 53656E73 		.ascii	"Sensor_ADC_offset\000"
 2389      6F725F41 
 2389      44435F6F 
 2389      66667365 
 2389      7400
 2390              	.LASF13:
 2391 00eb 696E7433 		.ascii	"int32\000"
 2391      3200
 2392              	.LASF4:
 2393 00f1 6C6F6E67 		.ascii	"long int\000"
 2393      20696E74 
 2393      00
 2394              	.LASF52:
 2395 00fa 53656E73 		.ascii	"Sensor_ADC_CountsTo_uVolts\000"
 2395      6F725F41 
 2395      44435F43 
 2395      6F756E74 
 2395      73546F5F 
 2396              	.LASF45:
 2397 0115 53656E73 		.ascii	"Sensor_ADC_SetOffset\000"
 2397      6F725F41 
 2397      44435F53 
 2397      65744F66 
 2397      66736574 
 2398              	.LASF9:
 2399 012a 75696E74 		.ascii	"uint8\000"
 2399      3800
 2400              	.LASF16:
 2401 0130 646F7562 		.ascii	"double\000"
 2401      6C6500
 2402              	.LASF32:
 2403 0137 53656E73 		.ascii	"Sensor_ADC_GetResult16\000"
 2403      6F725F41 
ARM GAS  C:\Users\jsing\AppData\Local\Temp\ccIpowyF.s 			page 59


 2403      44435F47 
 2403      65745265 
 2403      73756C74 
 2404              	.LASF11:
 2405 014e 75696E74 		.ascii	"uint32\000"
 2405      333200
 2406              	.LASF43:
 2407 0155 53656E73 		.ascii	"Sensor_ADC_SetLimitMask\000"
 2407      6F725F41 
 2407      44435F53 
 2407      65744C69 
 2407      6D69744D 
 2408              	.LASF38:
 2409 016d 6D61736B 		.ascii	"mask\000"
 2409      00
 2410              	.LASF57:
 2411 0172 53656E73 		.ascii	"Sensor_ADC_initVar\000"
 2411      6F725F41 
 2411      44435F69 
 2411      6E697456 
 2411      617200
 2412              	.LASF33:
 2413 0185 7265744D 		.ascii	"retMode\000"
 2413      6F646500 
 2414              	.LASF8:
 2415 018d 756E7369 		.ascii	"unsigned int\000"
 2415      676E6564 
 2415      20696E74 
 2415      00
 2416              	.LASF53:
 2417 019a 75566F6C 		.ascii	"uVolts\000"
 2417      747300
 2418              	.LASF5:
 2419 01a1 6C6F6E67 		.ascii	"long unsigned int\000"
 2419      20756E73 
 2419      69676E65 
 2419      6420696E 
 2419      7400
 2420              	.LASF55:
 2421 01b3 766F6C74 		.ascii	"volts\000"
 2421      7300
 2422              	.LASF22:
 2423 01b9 746D7052 		.ascii	"tmpRegVal\000"
 2423      65675661 
 2423      6C00
 2424              	.LASF29:
 2425 01c3 53656E73 		.ascii	"Sensor_ADC_StopConvert\000"
 2425      6F725F41 
 2425      44435F53 
 2425      746F7043 
 2425      6F6E7665 
 2426              	.LASF27:
 2427 01da 53656E73 		.ascii	"Sensor_ADC_Stop\000"
 2427      6F725F41 
 2427      44435F53 
 2427      746F7000 
 2428              	.LASF28:
ARM GAS  C:\Users\jsing\AppData\Local\Temp\ccIpowyF.s 			page 60


 2429 01ea 53656E73 		.ascii	"Sensor_ADC_StartConvert\000"
 2429      6F725F41 
 2429      44435F53 
 2429      74617274 
 2429      436F6E76 
 2430              	.LASF3:
 2431 0202 73686F72 		.ascii	"short unsigned int\000"
 2431      7420756E 
 2431      7369676E 
 2431      65642069 
 2431      6E7400
 2432              	.LASF51:
 2433 0215 6D566F6C 		.ascii	"mVolts\000"
 2433      747300
 2434              	.LASF19:
 2435 021c 72656733 		.ascii	"reg32\000"
 2435      3200
 2436              	.LASF41:
 2437 0222 53656E73 		.ascii	"Sensor_ADC_SetHighLimit\000"
 2437      6F725F41 
 2437      44435F53 
 2437      65744869 
 2437      67684C69 
 2438              	.LASF14:
 2439 023a 666C6F61 		.ascii	"float32\000"
 2439      74333200 
 2440              	.LASF20:
 2441 0242 73697A65 		.ascii	"sizetype\000"
 2441      74797065 
 2441      00
 2442              	.LASF40:
 2443 024b 6C6F774C 		.ascii	"lowLimit\000"
 2443      696D6974 
 2443      00
 2444              	.LASF31:
 2445 0254 53656E73 		.ascii	"Sensor_ADC_IsEndConversion\000"
 2445      6F725F41 
 2445      44435F49 
 2445      73456E64 
 2445      436F6E76 
 2446              	.LASF37:
 2447 026f 53656E73 		.ascii	"Sensor_ADC_SetChanMask\000"
 2447      6F725F41 
 2447      44435F53 
 2447      65744368 
 2447      616E4D61 
 2448              	.LASF17:
 2449 0286 696E7436 		.ascii	"int64\000"
 2449      3400
 2450              	.LASF15:
 2451 028c 666C6F61 		.ascii	"float\000"
 2451      7400
 2452              	.LASF60:
 2453 0292 474E5520 		.ascii	"GNU C 4.8.4 20140526 (release) [ARM/embedded-4_8-br"
 2453      4320342E 
 2453      382E3420 
 2453      32303134 
ARM GAS  C:\Users\jsing\AppData\Local\Temp\ccIpowyF.s 			page 61


 2453      30353236 
 2454 02c5 616E6368 		.ascii	"anch revision 211358] -mcpu=cortex-m0 -mthumb -g -O"
 2454      20726576 
 2454      6973696F 
 2454      6E203231 
 2454      31333538 
 2455 02f8 30202D66 		.ascii	"0 -ffunction-sections\000"
 2455      66756E63 
 2455      74696F6E 
 2455      2D736563 
 2455      74696F6E 
 2456              	.LASF47:
 2457 030e 53656E73 		.ascii	"Sensor_ADC_SetGain\000"
 2457      6F725F41 
 2457      44435F53 
 2457      65744761 
 2457      696E00
 2458              	.LASF39:
 2459 0321 53656E73 		.ascii	"Sensor_ADC_SetLowLimit\000"
 2459      6F725F41 
 2459      44435F53 
 2459      65744C6F 
 2459      774C696D 
 2460              	.LASF42:
 2461 0338 68696768 		.ascii	"highLimit\000"
 2461      4C696D69 
 2461      7400
 2462              	.LASF49:
 2463 0342 53656E73 		.ascii	"Sensor_ADC_CountsTo_mVolts\000"
 2463      6F725F41 
 2463      44435F43 
 2463      6F756E74 
 2463      73546F5F 
 2464              	.LASF1:
 2465 035d 756E7369 		.ascii	"unsigned char\000"
 2465      676E6564 
 2465      20636861 
 2465      7200
 2466              	.LASF56:
 2467 036b 53656E73 		.ascii	"Sensor_ADC_channelsConfig\000"
 2467      6F725F41 
 2467      44435F63 
 2467      68616E6E 
 2467      656C7343 
 2468              	.LASF2:
 2469 0385 73686F72 		.ascii	"short int\000"
 2469      7420696E 
 2469      7400
 2470              	.LASF21:
 2471 038f 63684E75 		.ascii	"chNum\000"
 2471      6D00
 2472              	.LASF34:
 2473 0395 6368616E 		.ascii	"chan\000"
 2473      00
 2474              	.LASF18:
 2475 039a 63686172 		.ascii	"char\000"
 2475      00
ARM GAS  C:\Users\jsing\AppData\Local\Temp\ccIpowyF.s 			page 62


 2476              	.LASF26:
 2477 039f 53656E73 		.ascii	"Sensor_ADC_Enable\000"
 2477      6F725F41 
 2477      44435F45 
 2477      6E61626C 
 2477      6500
 2478              	.LASF36:
 2479 03b1 53656E73 		.ascii	"Sensor_ADC_Init\000"
 2479      6F725F41 
 2479      44435F49 
 2479      6E697400 
 2480              	.LASF46:
 2481 03c1 6F666673 		.ascii	"offset\000"
 2481      657400
 2482              	.LASF25:
 2483 03c8 53656E73 		.ascii	"Sensor_ADC_Start\000"
 2483      6F725F41 
 2483      44435F53 
 2483      74617274 
 2483      00
 2484              	.LASF50:
 2485 03d9 61646343 		.ascii	"adcCounts\000"
 2485      6F756E74 
 2485      7300
 2486              	.LASF59:
 2487 03e3 53656E73 		.ascii	"Sensor_ADC_countsPer10Volt\000"
 2487      6F725F41 
 2487      44435F63 
 2487      6F756E74 
 2487      73506572 
 2488              	.LASF30:
 2489 03fe 73746174 		.ascii	"status\000"
 2489      757300
 2490              	.LASF12:
 2491 0405 696E7431 		.ascii	"int16\000"
 2491      3600
 2492              	.LASF54:
 2493 040b 53656E73 		.ascii	"Sensor_ADC_CountsTo_Volts\000"
 2493      6F725F41 
 2493      44435F43 
 2493      6F756E74 
 2493      73546F5F 
 2494              	.LASF61:
 2495 0425 2E5C4765 		.ascii	".\\Generated_Source\\PSoC4\\Sensor_ADC.c\000"
 2495      6E657261 
 2495      7465645F 
 2495      536F7572 
 2495      63655C50 
 2496              	.LASF44:
 2497 044b 53656E73 		.ascii	"Sensor_ADC_SetSatMask\000"
 2497      6F725F41 
 2497      44435F53 
 2497      65745361 
 2497      744D6173 
 2498              	.LASF35:
 2499 0461 72657375 		.ascii	"result\000"
 2499      6C7400
ARM GAS  C:\Users\jsing\AppData\Local\Temp\ccIpowyF.s 			page 63


 2500              		.ident	"GCC: (GNU Tools for ARM Embedded Processors) 4.8.4 20140526 (release) [ARM/embedded-4_8-br
