ARM GAS  C:\Users\jsing\AppData\Local\Temp\ccIpowyF.s 			page 1


   1              		.cpu cortex-m0
   2              		.fpu softvfp
   3              		.eabi_attribute 20, 1
   4              		.eabi_attribute 21, 1
   5              		.eabi_attribute 23, 3
   6              		.eabi_attribute 24, 1
   7              		.eabi_attribute 25, 1
   8              		.eabi_attribute 26, 1
   9              		.eabi_attribute 30, 6
  10              		.eabi_attribute 34, 0
  11              		.eabi_attribute 18, 4
  12              		.code	16
  13              		.file	"Sensor_ADC.c"
  14              		.text
  15              	.Ltext0:
  16              		.cfi_sections	.debug_frame
  17              		.global	Sensor_ADC_initVar
  18              		.bss
  19              		.type	Sensor_ADC_initVar, %object
  20              		.size	Sensor_ADC_initVar, 1
  21              	Sensor_ADC_initVar:
  22 0000 00       		.space	1
  23              		.comm	Sensor_ADC_offset,6,4
  24              		.comm	Sensor_ADC_countsPer10Volt,12,4
  25              		.section	.rodata
  26              		.align	2
  27              		.type	Sensor_ADC_channelsConfig, %object
  28              		.size	Sensor_ADC_channelsConfig, 12
  29              	Sensor_ADC_channelsConfig:
  30 0000 00040000 		.word	1024
  31 0004 00040000 		.word	1024
  32 0008 00040000 		.word	1024
  33              		.section	.text.Sensor_ADC_Start,"ax",%progbits
  34              		.align	2
  35              		.global	Sensor_ADC_Start
  36              		.code	16
  37              		.thumb_func
  38              		.type	Sensor_ADC_Start, %function
  39              	Sensor_ADC_Start:
  40              	.LFB2:
  41              		.file 1 ".\\Generated_Source\\PSoC4\\Sensor_ADC.c"
   1:.\Generated_Source\PSoC4/Sensor_ADC.c **** /*******************************************************************************
   2:.\Generated_Source\PSoC4/Sensor_ADC.c **** * File Name: Sensor_ADC.c
   3:.\Generated_Source\PSoC4/Sensor_ADC.c **** * Version 2.10
   4:.\Generated_Source\PSoC4/Sensor_ADC.c **** *
   5:.\Generated_Source\PSoC4/Sensor_ADC.c **** * Description:
   6:.\Generated_Source\PSoC4/Sensor_ADC.c **** *  This file provides the source code to the API for the Sequencing Successive
   7:.\Generated_Source\PSoC4/Sensor_ADC.c **** *  Approximation ADC Component Component.
   8:.\Generated_Source\PSoC4/Sensor_ADC.c **** *
   9:.\Generated_Source\PSoC4/Sensor_ADC.c **** * Note:
  10:.\Generated_Source\PSoC4/Sensor_ADC.c **** *
  11:.\Generated_Source\PSoC4/Sensor_ADC.c **** ********************************************************************************
  12:.\Generated_Source\PSoC4/Sensor_ADC.c **** * Copyright 2008-2015, Cypress Semiconductor Corporation.  All rights reserved.
  13:.\Generated_Source\PSoC4/Sensor_ADC.c **** * You may use this file only in accordance with the license, terms, conditions,
  14:.\Generated_Source\PSoC4/Sensor_ADC.c **** * disclaimers, and limitations in the end user license agreement accompanying
  15:.\Generated_Source\PSoC4/Sensor_ADC.c **** * the software package with which this file was provided.
  16:.\Generated_Source\PSoC4/Sensor_ADC.c **** *******************************************************************************/
ARM GAS  C:\Users\jsing\AppData\Local\Temp\ccIpowyF.s 			page 2


  17:.\Generated_Source\PSoC4/Sensor_ADC.c **** 
  18:.\Generated_Source\PSoC4/Sensor_ADC.c **** #include "Sensor_ADC.h"
  19:.\Generated_Source\PSoC4/Sensor_ADC.c **** 
  20:.\Generated_Source\PSoC4/Sensor_ADC.c **** 
  21:.\Generated_Source\PSoC4/Sensor_ADC.c **** /***************************************
  22:.\Generated_Source\PSoC4/Sensor_ADC.c **** * Global data allocation
  23:.\Generated_Source\PSoC4/Sensor_ADC.c **** ***************************************/
  24:.\Generated_Source\PSoC4/Sensor_ADC.c **** uint8 Sensor_ADC_initVar = 0u;
  25:.\Generated_Source\PSoC4/Sensor_ADC.c **** volatile int16 Sensor_ADC_offset[Sensor_ADC_TOTAL_CHANNELS_NUM];
  26:.\Generated_Source\PSoC4/Sensor_ADC.c **** volatile int32 Sensor_ADC_countsPer10Volt[Sensor_ADC_TOTAL_CHANNELS_NUM];   /* Gain compensation */
  27:.\Generated_Source\PSoC4/Sensor_ADC.c **** 
  28:.\Generated_Source\PSoC4/Sensor_ADC.c **** 
  29:.\Generated_Source\PSoC4/Sensor_ADC.c **** /***************************************
  30:.\Generated_Source\PSoC4/Sensor_ADC.c **** * Local data allocation
  31:.\Generated_Source\PSoC4/Sensor_ADC.c **** ***************************************/
  32:.\Generated_Source\PSoC4/Sensor_ADC.c **** /* Channels configuration generated by customiser */
  33:.\Generated_Source\PSoC4/Sensor_ADC.c **** static const uint32 CYCODE Sensor_ADC_channelsConfig[] = { 0x00000400u, 0x00000400u, 0x00000400u };
  34:.\Generated_Source\PSoC4/Sensor_ADC.c **** 
  35:.\Generated_Source\PSoC4/Sensor_ADC.c **** 
  36:.\Generated_Source\PSoC4/Sensor_ADC.c **** /*******************************************************************************
  37:.\Generated_Source\PSoC4/Sensor_ADC.c **** * Function Name: Sensor_ADC_Start
  38:.\Generated_Source\PSoC4/Sensor_ADC.c **** ********************************************************************************
  39:.\Generated_Source\PSoC4/Sensor_ADC.c **** *
  40:.\Generated_Source\PSoC4/Sensor_ADC.c **** * Summary:
  41:.\Generated_Source\PSoC4/Sensor_ADC.c **** *  Performs all required initialization for this component
  42:.\Generated_Source\PSoC4/Sensor_ADC.c **** *  and enables the power. The power will be set to the appropriate
  43:.\Generated_Source\PSoC4/Sensor_ADC.c **** *  power based on the clock frequency.
  44:.\Generated_Source\PSoC4/Sensor_ADC.c **** *
  45:.\Generated_Source\PSoC4/Sensor_ADC.c **** * Parameters:
  46:.\Generated_Source\PSoC4/Sensor_ADC.c **** *  None.
  47:.\Generated_Source\PSoC4/Sensor_ADC.c **** *
  48:.\Generated_Source\PSoC4/Sensor_ADC.c **** * Return:
  49:.\Generated_Source\PSoC4/Sensor_ADC.c **** *  None.
  50:.\Generated_Source\PSoC4/Sensor_ADC.c **** *
  51:.\Generated_Source\PSoC4/Sensor_ADC.c **** * Global variables:
  52:.\Generated_Source\PSoC4/Sensor_ADC.c **** *  The Sensor_ADC_initVar variable is used to indicate when/if initial
  53:.\Generated_Source\PSoC4/Sensor_ADC.c **** *  configuration of this component has happened. The variable is initialized to
  54:.\Generated_Source\PSoC4/Sensor_ADC.c **** *  zero and set to 1 the first time ADC_Start() is called. This allows for
  55:.\Generated_Source\PSoC4/Sensor_ADC.c **** *  component Re-Start without re-initialization in all subsequent calls to the
  56:.\Generated_Source\PSoC4/Sensor_ADC.c **** *  Sensor_ADC_Start() routine.
  57:.\Generated_Source\PSoC4/Sensor_ADC.c **** *  If re-initialization of the component is required the variable should be set
  58:.\Generated_Source\PSoC4/Sensor_ADC.c **** *  to zero before call of Sensor_ADC_Start() routine, or the user may call
  59:.\Generated_Source\PSoC4/Sensor_ADC.c **** *  Sensor_ADC_Init() and Sensor_ADC_Enable() as done in the
  60:.\Generated_Source\PSoC4/Sensor_ADC.c **** *  Sensor_ADC_Start() routine.
  61:.\Generated_Source\PSoC4/Sensor_ADC.c **** *
  62:.\Generated_Source\PSoC4/Sensor_ADC.c **** *******************************************************************************/
  63:.\Generated_Source\PSoC4/Sensor_ADC.c **** void Sensor_ADC_Start(void)
  64:.\Generated_Source\PSoC4/Sensor_ADC.c **** {
  42              		.loc 1 64 0
  43              		.cfi_startproc
  44 0000 80B5     		push	{r7, lr}
  45              		.cfi_def_cfa_offset 8
  46              		.cfi_offset 7, -8
  47              		.cfi_offset 14, -4
  48 0002 00AF     		add	r7, sp, #0
  49              		.cfi_def_cfa_register 7
  65:.\Generated_Source\PSoC4/Sensor_ADC.c ****     /* If not Initialized then initialize all required hardware and software */
ARM GAS  C:\Users\jsing\AppData\Local\Temp\ccIpowyF.s 			page 3


  66:.\Generated_Source\PSoC4/Sensor_ADC.c ****     if(Sensor_ADC_initVar == 0u)
  50              		.loc 1 66 0
  51 0004 064B     		ldr	r3, .L3
  52 0006 1B78     		ldrb	r3, [r3]
  53 0008 002B     		cmp	r3, #0
  54 000a 04D1     		bne	.L2
  67:.\Generated_Source\PSoC4/Sensor_ADC.c ****     {
  68:.\Generated_Source\PSoC4/Sensor_ADC.c ****         Sensor_ADC_Init();
  55              		.loc 1 68 0
  56 000c FFF7FEFF 		bl	Sensor_ADC_Init
  69:.\Generated_Source\PSoC4/Sensor_ADC.c ****         Sensor_ADC_initVar = 1u;
  57              		.loc 1 69 0
  58 0010 034B     		ldr	r3, .L3
  59 0012 0122     		mov	r2, #1
  60 0014 1A70     		strb	r2, [r3]
  61              	.L2:
  70:.\Generated_Source\PSoC4/Sensor_ADC.c ****     }
  71:.\Generated_Source\PSoC4/Sensor_ADC.c ****     Sensor_ADC_Enable();
  62              		.loc 1 71 0
  63 0016 FFF7FEFF 		bl	Sensor_ADC_Enable
  72:.\Generated_Source\PSoC4/Sensor_ADC.c **** }
  64              		.loc 1 72 0
  65 001a BD46     		mov	sp, r7
  66              		@ sp needed
  67 001c 80BD     		pop	{r7, pc}
  68              	.L4:
  69 001e C046     		.align	2
  70              	.L3:
  71 0020 00000000 		.word	Sensor_ADC_initVar
  72              		.cfi_endproc
  73              	.LFE2:
  74              		.size	Sensor_ADC_Start, .-Sensor_ADC_Start
  75              		.global	__aeabi_idiv
  76              		.section	.text.Sensor_ADC_Init,"ax",%progbits
  77              		.align	2
  78              		.global	Sensor_ADC_Init
  79              		.code	16
  80              		.thumb_func
  81              		.type	Sensor_ADC_Init, %function
  82              	Sensor_ADC_Init:
  83              	.LFB3:
  73:.\Generated_Source\PSoC4/Sensor_ADC.c **** 
  74:.\Generated_Source\PSoC4/Sensor_ADC.c **** 
  75:.\Generated_Source\PSoC4/Sensor_ADC.c **** /*******************************************************************************
  76:.\Generated_Source\PSoC4/Sensor_ADC.c **** * Function Name: Sensor_ADC_Init
  77:.\Generated_Source\PSoC4/Sensor_ADC.c **** ********************************************************************************
  78:.\Generated_Source\PSoC4/Sensor_ADC.c **** *
  79:.\Generated_Source\PSoC4/Sensor_ADC.c **** * Summary:
  80:.\Generated_Source\PSoC4/Sensor_ADC.c **** *  Initialize component's parameters to the parameters set by user in the
  81:.\Generated_Source\PSoC4/Sensor_ADC.c **** *  customizer of the component placed onto schematic. Usually called in
  82:.\Generated_Source\PSoC4/Sensor_ADC.c **** *  Sensor_ADC_Start().
  83:.\Generated_Source\PSoC4/Sensor_ADC.c **** *
  84:.\Generated_Source\PSoC4/Sensor_ADC.c **** * Parameters:
  85:.\Generated_Source\PSoC4/Sensor_ADC.c **** *  None.
  86:.\Generated_Source\PSoC4/Sensor_ADC.c **** *
  87:.\Generated_Source\PSoC4/Sensor_ADC.c **** * Return:
  88:.\Generated_Source\PSoC4/Sensor_ADC.c **** *  None.
ARM GAS  C:\Users\jsing\AppData\Local\Temp\ccIpowyF.s 			page 4


  89:.\Generated_Source\PSoC4/Sensor_ADC.c **** *
  90:.\Generated_Source\PSoC4/Sensor_ADC.c **** * Global variables:
  91:.\Generated_Source\PSoC4/Sensor_ADC.c **** *  The Sensor_ADC_offset variable is initialized.
  92:.\Generated_Source\PSoC4/Sensor_ADC.c **** *
  93:.\Generated_Source\PSoC4/Sensor_ADC.c **** *******************************************************************************/
  94:.\Generated_Source\PSoC4/Sensor_ADC.c **** void Sensor_ADC_Init(void)
  95:.\Generated_Source\PSoC4/Sensor_ADC.c **** {
  84              		.loc 1 95 0
  85              		.cfi_startproc
  86 0000 90B5     		push	{r4, r7, lr}
  87              		.cfi_def_cfa_offset 12
  88              		.cfi_offset 4, -12
  89              		.cfi_offset 7, -8
  90              		.cfi_offset 14, -4
  91 0002 85B0     		sub	sp, sp, #20
  92              		.cfi_def_cfa_offset 32
  93 0004 00AF     		add	r7, sp, #0
  94              		.cfi_def_cfa_register 7
  96:.\Generated_Source\PSoC4/Sensor_ADC.c ****     uint32 chNum;
  97:.\Generated_Source\PSoC4/Sensor_ADC.c ****     uint32 tmpRegVal;
  98:.\Generated_Source\PSoC4/Sensor_ADC.c ****     int32 counts;
  99:.\Generated_Source\PSoC4/Sensor_ADC.c **** 
 100:.\Generated_Source\PSoC4/Sensor_ADC.c ****     #if(Sensor_ADC_TOTAL_CHANNELS_NUM > 1u)
 101:.\Generated_Source\PSoC4/Sensor_ADC.c ****         static const uint8 CYCODE Sensor_ADC_InputsPlacement[] =
 102:.\Generated_Source\PSoC4/Sensor_ADC.c ****         {
 103:.\Generated_Source\PSoC4/Sensor_ADC.c ****             (uint8)(Sensor_ADC_cy_psoc4_sarmux_8__CH_0_PORT << 4u) |
 104:.\Generated_Source\PSoC4/Sensor_ADC.c ****             (uint8)Sensor_ADC_cy_psoc4_sarmux_8__CH_0_PIN
 105:.\Generated_Source\PSoC4/Sensor_ADC.c ****             ,(uint8)(Sensor_ADC_cy_psoc4_sarmux_8__CH_1_PORT << 4u) |
 106:.\Generated_Source\PSoC4/Sensor_ADC.c ****              (uint8)Sensor_ADC_cy_psoc4_sarmux_8__CH_1_PIN
 107:.\Generated_Source\PSoC4/Sensor_ADC.c ****             #if(Sensor_ADC_TOTAL_CHANNELS_NUM > 2u)
 108:.\Generated_Source\PSoC4/Sensor_ADC.c ****                 ,(uint8)(Sensor_ADC_cy_psoc4_sarmux_8__CH_2_PORT << 4u) |
 109:.\Generated_Source\PSoC4/Sensor_ADC.c ****                  (uint8)Sensor_ADC_cy_psoc4_sarmux_8__CH_2_PIN
 110:.\Generated_Source\PSoC4/Sensor_ADC.c ****             #endif /* End Sensor_ADC_TOTAL_CHANNELS_NUM > 2u */
 111:.\Generated_Source\PSoC4/Sensor_ADC.c ****             #if(Sensor_ADC_TOTAL_CHANNELS_NUM > 3u)
 112:.\Generated_Source\PSoC4/Sensor_ADC.c ****                 ,(uint8)(Sensor_ADC_cy_psoc4_sarmux_8__CH_3_PORT << 4u) |
 113:.\Generated_Source\PSoC4/Sensor_ADC.c ****                  (uint8)Sensor_ADC_cy_psoc4_sarmux_8__CH_3_PIN
 114:.\Generated_Source\PSoC4/Sensor_ADC.c ****             #endif /* End Sensor_ADC_TOTAL_CHANNELS_NUM > 3u */
 115:.\Generated_Source\PSoC4/Sensor_ADC.c ****             #if(Sensor_ADC_TOTAL_CHANNELS_NUM > 4u)
 116:.\Generated_Source\PSoC4/Sensor_ADC.c ****                 ,(uint8)(Sensor_ADC_cy_psoc4_sarmux_8__CH_4_PORT << 4u) |
 117:.\Generated_Source\PSoC4/Sensor_ADC.c ****                  (uint8)Sensor_ADC_cy_psoc4_sarmux_8__CH_4_PIN
 118:.\Generated_Source\PSoC4/Sensor_ADC.c ****             #endif /* End Sensor_ADC_TOTAL_CHANNELS_NUM > 4u */
 119:.\Generated_Source\PSoC4/Sensor_ADC.c ****             #if(Sensor_ADC_TOTAL_CHANNELS_NUM > 5u)
 120:.\Generated_Source\PSoC4/Sensor_ADC.c ****                 ,(uint8)(Sensor_ADC_cy_psoc4_sarmux_8__CH_5_PORT << 4u) |
 121:.\Generated_Source\PSoC4/Sensor_ADC.c ****                  (uint8)Sensor_ADC_cy_psoc4_sarmux_8__CH_5_PIN
 122:.\Generated_Source\PSoC4/Sensor_ADC.c ****             #endif /* End Sensor_ADC_TOTAL_CHANNELS_NUM > 5u */
 123:.\Generated_Source\PSoC4/Sensor_ADC.c ****             #if(Sensor_ADC_TOTAL_CHANNELS_NUM > 6u)
 124:.\Generated_Source\PSoC4/Sensor_ADC.c ****                 ,(uint8)(Sensor_ADC_cy_psoc4_sarmux_8__CH_6_PORT << 4u) |
 125:.\Generated_Source\PSoC4/Sensor_ADC.c ****                  (uint8)Sensor_ADC_cy_psoc4_sarmux_8__CH_6_PIN
 126:.\Generated_Source\PSoC4/Sensor_ADC.c ****             #endif /* End Sensor_ADC_TOTAL_CHANNELS_NUM > 6u */
 127:.\Generated_Source\PSoC4/Sensor_ADC.c ****             #if(Sensor_ADC_TOTAL_CHANNELS_NUM > 7u)
 128:.\Generated_Source\PSoC4/Sensor_ADC.c ****                 ,(uint8)(Sensor_ADC_cy_psoc4_sarmux_8__CH_7_PORT << 4u) |
 129:.\Generated_Source\PSoC4/Sensor_ADC.c ****                  (uint8)Sensor_ADC_cy_psoc4_sarmux_8__CH_7_PIN
 130:.\Generated_Source\PSoC4/Sensor_ADC.c ****             #endif /* End Sensor_ADC_TOTAL_CHANNELS_NUM > 7u */
 131:.\Generated_Source\PSoC4/Sensor_ADC.c ****             #if(Sensor_ADC_TOTAL_CHANNELS_NUM > 8u)
 132:.\Generated_Source\PSoC4/Sensor_ADC.c ****                 ,(uint8)(Sensor_ADC_cy_psoc4_sarmux_8__CH_8_PORT << 4u) |
 133:.\Generated_Source\PSoC4/Sensor_ADC.c ****                  (uint8)Sensor_ADC_cy_psoc4_sarmux_8__CH_8_PIN
 134:.\Generated_Source\PSoC4/Sensor_ADC.c ****             #endif /* End Sensor_ADC_TOTAL_CHANNELS_NUM > 8u */
ARM GAS  C:\Users\jsing\AppData\Local\Temp\ccIpowyF.s 			page 5


 135:.\Generated_Source\PSoC4/Sensor_ADC.c ****         };
 136:.\Generated_Source\PSoC4/Sensor_ADC.c ****     #endif /* End Sensor_ADC_TOTAL_CHANNELS_NUM > 1u */
 137:.\Generated_Source\PSoC4/Sensor_ADC.c **** 
 138:.\Generated_Source\PSoC4/Sensor_ADC.c ****     #if(Sensor_ADC_IRQ_REMOVE == 0u)
 139:.\Generated_Source\PSoC4/Sensor_ADC.c ****         /* Start and set interrupt vector */
 140:.\Generated_Source\PSoC4/Sensor_ADC.c ****         CyIntSetPriority(Sensor_ADC_INTC_NUMBER, Sensor_ADC_INTC_PRIOR_NUMBER);
  95              		.loc 1 140 0
  96 0006 0F20     		mov	r0, #15
  97 0008 0321     		mov	r1, #3
  98 000a FFF7FEFF 		bl	CyIntSetPriority
 141:.\Generated_Source\PSoC4/Sensor_ADC.c ****         (void)CyIntSetVector(Sensor_ADC_INTC_NUMBER, &Sensor_ADC_ISR);
  99              		.loc 1 141 0
 100 000e 644B     		ldr	r3, .L17
 101 0010 0F20     		mov	r0, #15
 102 0012 191C     		mov	r1, r3
 103 0014 FFF7FEFF 		bl	CyIntSetVector
 142:.\Generated_Source\PSoC4/Sensor_ADC.c ****     #endif   /* End Sensor_ADC_IRQ_REMOVE */
 143:.\Generated_Source\PSoC4/Sensor_ADC.c **** 
 144:.\Generated_Source\PSoC4/Sensor_ADC.c ****     /* Init SAR and MUX registers */
 145:.\Generated_Source\PSoC4/Sensor_ADC.c ****     Sensor_ADC_SAR_CHAN_EN_REG = Sensor_ADC_DEFAULT_EN_CHANNELS;
 104              		.loc 1 145 0
 105 0018 624B     		ldr	r3, .L17+4
 106 001a 0722     		mov	r2, #7
 107 001c 1A60     		str	r2, [r3]
 146:.\Generated_Source\PSoC4/Sensor_ADC.c ****     Sensor_ADC_SAR_CTRL_REG |= Sensor_ADC_DEFAULT_CTRL_REG_CFG | 
 108              		.loc 1 146 0
 109 001e 624B     		ldr	r3, .L17+8
 110 0020 614A     		ldr	r2, .L17+8
 111 0022 1168     		ldr	r1, [r2]
 147:.\Generated_Source\PSoC4/Sensor_ADC.c ****         /* Enable the SAR internal pump when global pump is enabled */
 148:.\Generated_Source\PSoC4/Sensor_ADC.c ****         (((Sensor_ADC_PUMP_CTRL_REG & Sensor_ADC_PUMP_CTRL_ENABLED) != 0u) ? 
 112              		.loc 1 148 0
 113 0024 614A     		ldr	r2, .L17+12
 114 0026 1268     		ldr	r2, [r2]
 146:.\Generated_Source\PSoC4/Sensor_ADC.c ****     Sensor_ADC_SAR_CTRL_REG |= Sensor_ADC_DEFAULT_CTRL_REG_CFG | 
 115              		.loc 1 146 0
 116 0028 002A     		cmp	r2, #0
 117 002a 01DA     		bge	.L6
 146:.\Generated_Source\PSoC4/Sensor_ADC.c ****     Sensor_ADC_SAR_CTRL_REG |= Sensor_ADC_DEFAULT_CTRL_REG_CFG | 
 118              		.loc 1 146 0 is_stmt 0 discriminator 1
 119 002c 604A     		ldr	r2, .L17+16
 120 002e 00E0     		b	.L7
 121              	.L6:
 146:.\Generated_Source\PSoC4/Sensor_ADC.c ****     Sensor_ADC_SAR_CTRL_REG |= Sensor_ADC_DEFAULT_CTRL_REG_CFG | 
 122              		.loc 1 146 0 discriminator 2
 123 0030 604A     		ldr	r2, .L17+20
 124              	.L7:
 146:.\Generated_Source\PSoC4/Sensor_ADC.c ****     Sensor_ADC_SAR_CTRL_REG |= Sensor_ADC_DEFAULT_CTRL_REG_CFG | 
 125              		.loc 1 146 0 discriminator 3
 126 0032 0A43     		orr	r2, r1
 127 0034 1A60     		str	r2, [r3]
 149:.\Generated_Source\PSoC4/Sensor_ADC.c ****         Sensor_ADC_BOOSTPUMP_EN : 0u);
 150:.\Generated_Source\PSoC4/Sensor_ADC.c ****     Sensor_ADC_SAR_SAMPLE_CTRL_REG = Sensor_ADC_DEFAULT_SAMPLE_CTRL_REG_CFG;
 128              		.loc 1 150 0 is_stmt 1 discriminator 3
 129 0036 604B     		ldr	r3, .L17+24
 130 0038 604A     		ldr	r2, .L17+28
 131 003a 1A60     		str	r2, [r3]
ARM GAS  C:\Users\jsing\AppData\Local\Temp\ccIpowyF.s 			page 6


 151:.\Generated_Source\PSoC4/Sensor_ADC.c ****     Sensor_ADC_SAR_RANGE_THRES_REG = Sensor_ADC_DEFAULT_RANGE_THRES_REG_CFG;
 132              		.loc 1 151 0 discriminator 3
 133 003c 604B     		ldr	r3, .L17+32
 134 003e 614A     		ldr	r2, .L17+36
 135 0040 1A60     		str	r2, [r3]
 152:.\Generated_Source\PSoC4/Sensor_ADC.c ****     Sensor_ADC_SAR_RANGE_COND_REG  = Sensor_ADC_COMPARE_MODE;
 136              		.loc 1 152 0 discriminator 3
 137 0042 614B     		ldr	r3, .L17+40
 138 0044 0022     		mov	r2, #0
 139 0046 1A60     		str	r2, [r3]
 153:.\Generated_Source\PSoC4/Sensor_ADC.c ****     Sensor_ADC_SAR_SAMPLE_TIME01_REG = Sensor_ADC_DEFAULT_SAMPLE_TIME01_REG_CFG;
 140              		.loc 1 153 0 discriminator 3
 141 0048 604B     		ldr	r3, .L17+44
 142 004a 614A     		ldr	r2, .L17+48
 143 004c 1A60     		str	r2, [r3]
 154:.\Generated_Source\PSoC4/Sensor_ADC.c ****     Sensor_ADC_SAR_SAMPLE_TIME23_REG = Sensor_ADC_DEFAULT_SAMPLE_TIME23_REG_CFG;
 144              		.loc 1 154 0 discriminator 3
 145 004e 614B     		ldr	r3, .L17+52
 146 0050 5F4A     		ldr	r2, .L17+48
 147 0052 1A60     		str	r2, [r3]
 155:.\Generated_Source\PSoC4/Sensor_ADC.c ****     
 156:.\Generated_Source\PSoC4/Sensor_ADC.c ****     /* Connect Vm to VSSA when even one channel is single-ended or multiple channels configured */
 157:.\Generated_Source\PSoC4/Sensor_ADC.c ****     #if(Sensor_ADC_DEFAULT_MUX_SWITCH0 != 0u)
 158:.\Generated_Source\PSoC4/Sensor_ADC.c ****         Sensor_ADC_MUX_SWITCH0_REG |= Sensor_ADC_DEFAULT_MUX_SWITCH0;
 148              		.loc 1 158 0 discriminator 3
 149 0054 604B     		ldr	r3, .L17+56
 150 0056 604A     		ldr	r2, .L17+56
 151 0058 1268     		ldr	r2, [r2]
 152 005a 8021     		mov	r1, #128
 153 005c 4902     		lsl	r1, r1, #9
 154 005e 0A43     		orr	r2, r1
 155 0060 1A60     		str	r2, [r3]
 159:.\Generated_Source\PSoC4/Sensor_ADC.c ****         /* Set MUX_HW_CTRL_VSSA in MUX_SWITCH_HW_CTRL when multiple channels enabled */
 160:.\Generated_Source\PSoC4/Sensor_ADC.c ****         #if(Sensor_ADC_TOTAL_CHANNELS_NUM > 1u)
 161:.\Generated_Source\PSoC4/Sensor_ADC.c ****             Sensor_ADC_MUX_SWITCH_HW_CTRL_REG |= Sensor_ADC_DEFAULT_MUX_SWITCH0;
 156              		.loc 1 161 0 discriminator 3
 157 0062 5E4B     		ldr	r3, .L17+60
 158 0064 5D4A     		ldr	r2, .L17+60
 159 0066 1268     		ldr	r2, [r2]
 160 0068 8021     		mov	r1, #128
 161 006a 4902     		lsl	r1, r1, #9
 162 006c 0A43     		orr	r2, r1
 163 006e 1A60     		str	r2, [r3]
 162:.\Generated_Source\PSoC4/Sensor_ADC.c ****         #endif /* Sensor_ADC_TOTAL_CHANNELS_NUM > 1u */
 163:.\Generated_Source\PSoC4/Sensor_ADC.c ****     #endif /*Sensor_ADC_CHANNELS_MODE !=0 */
 164:.\Generated_Source\PSoC4/Sensor_ADC.c **** 
 165:.\Generated_Source\PSoC4/Sensor_ADC.c ****     Sensor_ADC_SAR_SATURATE_INTR_MASK_REG = 0u;
 164              		.loc 1 165 0 discriminator 3
 165 0070 5B4B     		ldr	r3, .L17+64
 166 0072 0022     		mov	r2, #0
 167 0074 1A60     		str	r2, [r3]
 166:.\Generated_Source\PSoC4/Sensor_ADC.c ****     Sensor_ADC_SAR_RANGE_INTR_MASK_REG = 0u;
 168              		.loc 1 166 0 discriminator 3
 169 0076 5B4B     		ldr	r3, .L17+68
 170 0078 0022     		mov	r2, #0
 171 007a 1A60     		str	r2, [r3]
 167:.\Generated_Source\PSoC4/Sensor_ADC.c ****     Sensor_ADC_SAR_INTR_MASK_REG = Sensor_ADC_SAR_INTR_MASK;
ARM GAS  C:\Users\jsing\AppData\Local\Temp\ccIpowyF.s 			page 7


 172              		.loc 1 167 0 discriminator 3
 173 007c 5A4B     		ldr	r3, .L17+72
 174 007e 0122     		mov	r2, #1
 175 0080 1A60     		str	r2, [r3]
 168:.\Generated_Source\PSoC4/Sensor_ADC.c **** 
 169:.\Generated_Source\PSoC4/Sensor_ADC.c ****     #if(Sensor_ADC_CY_SAR_IP_VER == Sensor_ADC_CY_SAR_IP_PSOC4)
 170:.\Generated_Source\PSoC4/Sensor_ADC.c ****         Sensor_ADC_ANA_TRIM_REG = Sensor_ADC_TRIM_COEF;
 171:.\Generated_Source\PSoC4/Sensor_ADC.c ****     #endif /* (Sensor_ADC_CY_SAR_IP_VER == Sensor_ADC_CY_SAR_IP_PSOC4) */
 172:.\Generated_Source\PSoC4/Sensor_ADC.c **** 
 173:.\Generated_Source\PSoC4/Sensor_ADC.c ****     /* Read and modify default configuration based on characterization */
 174:.\Generated_Source\PSoC4/Sensor_ADC.c ****     tmpRegVal = Sensor_ADC_SAR_DFT_CTRL_REG;
 176              		.loc 1 174 0 discriminator 3
 177 0082 5A4B     		ldr	r3, .L17+76
 178 0084 1B68     		ldr	r3, [r3]
 179 0086 7B60     		str	r3, [r7, #4]
 175:.\Generated_Source\PSoC4/Sensor_ADC.c ****     tmpRegVal &= (uint32)~Sensor_ADC_DCEN;
 180              		.loc 1 175 0 discriminator 3
 181 0088 7A68     		ldr	r2, [r7, #4]
 182 008a 594B     		ldr	r3, .L17+80
 183 008c 1340     		and	r3, r2
 184 008e 7B60     		str	r3, [r7, #4]
 176:.\Generated_Source\PSoC4/Sensor_ADC.c ****     
 177:.\Generated_Source\PSoC4/Sensor_ADC.c ****     #if(Sensor_ADC_CY_SAR_IP_VER == Sensor_ADC_CY_SAR_IP_PSOC4)
 178:.\Generated_Source\PSoC4/Sensor_ADC.c ****         #if(Sensor_ADC_NOMINAL_CLOCK_FREQ > (Sensor_ADC_MAX_FREQUENCY / 2))
 179:.\Generated_Source\PSoC4/Sensor_ADC.c ****             tmpRegVal |= Sensor_ADC_SEL_CSEL_DFT_CHAR;
 180:.\Generated_Source\PSoC4/Sensor_ADC.c ****         #else  /* clock speed < 9 Mhz */
 181:.\Generated_Source\PSoC4/Sensor_ADC.c ****             tmpRegVal |= Sensor_ADC_DLY_INC;
 182:.\Generated_Source\PSoC4/Sensor_ADC.c ****         #endif /* clock speed > 9 Mhz */
 183:.\Generated_Source\PSoC4/Sensor_ADC.c ****     #else
 184:.\Generated_Source\PSoC4/Sensor_ADC.c ****         #if ((Sensor_ADC_DEFAULT_VREF_SEL == Sensor_ADC__INTERNAL1024) || \
 185:.\Generated_Source\PSoC4/Sensor_ADC.c ****              (Sensor_ADC_DEFAULT_VREF_SEL == Sensor_ADC__INTERNALVREF))
 186:.\Generated_Source\PSoC4/Sensor_ADC.c ****             tmpRegVal |= Sensor_ADC_DLY_INC;
 187:.\Generated_Source\PSoC4/Sensor_ADC.c ****         #else
 188:.\Generated_Source\PSoC4/Sensor_ADC.c ****             tmpRegVal |= Sensor_ADC_DCEN;
 185              		.loc 1 188 0 discriminator 3
 186 0090 7B68     		ldr	r3, [r7, #4]
 187 0092 8022     		mov	r2, #128
 188 0094 9205     		lsl	r2, r2, #22
 189 0096 1343     		orr	r3, r2
 190 0098 7B60     		str	r3, [r7, #4]
 189:.\Generated_Source\PSoC4/Sensor_ADC.c ****             tmpRegVal &= (uint32)~Sensor_ADC_DLY_INC;
 191              		.loc 1 189 0 discriminator 3
 192 009a 7B68     		ldr	r3, [r7, #4]
 193 009c 0122     		mov	r2, #1
 194 009e 9343     		bic	r3, r2
 195 00a0 7B60     		str	r3, [r7, #4]
 190:.\Generated_Source\PSoC4/Sensor_ADC.c ****         #endif /* ((Sensor_ADC_DEFAULT_VREF_SEL == Sensor_ADC__INTERNAL1024) || \
 191:.\Generated_Source\PSoC4/Sensor_ADC.c ****                    (Sensor_ADC_DEFAULT_VREF_SEL == Sensor_ADC__INTERNALVREF)) */
 192:.\Generated_Source\PSoC4/Sensor_ADC.c ****     #endif /* (Sensor_ADC_CY_SAR_IP_VER == Sensor_ADC_CY_SAR_IP_PSOC4) */
 193:.\Generated_Source\PSoC4/Sensor_ADC.c ****     
 194:.\Generated_Source\PSoC4/Sensor_ADC.c ****     Sensor_ADC_SAR_DFT_CTRL_REG = tmpRegVal;
 196              		.loc 1 194 0 discriminator 3
 197 00a2 524B     		ldr	r3, .L17+76
 198 00a4 7A68     		ldr	r2, [r7, #4]
 199 00a6 1A60     		str	r2, [r3]
 195:.\Generated_Source\PSoC4/Sensor_ADC.c **** 
 196:.\Generated_Source\PSoC4/Sensor_ADC.c ****     #if(Sensor_ADC_MAX_RESOLUTION != Sensor_ADC_RESOLUTION_12)
ARM GAS  C:\Users\jsing\AppData\Local\Temp\ccIpowyF.s 			page 8


 197:.\Generated_Source\PSoC4/Sensor_ADC.c ****         Sensor_ADC_WOUNDING_REG = Sensor_ADC_ALT_WOUNDING;
 198:.\Generated_Source\PSoC4/Sensor_ADC.c ****     #endif /* Sensor_ADC_MAX_RESOLUTION != Sensor_ADC_RESOLUTION_12 */
 199:.\Generated_Source\PSoC4/Sensor_ADC.c **** 
 200:.\Generated_Source\PSoC4/Sensor_ADC.c ****     for(chNum = 0u; chNum < Sensor_ADC_TOTAL_CHANNELS_NUM; chNum++)
 200              		.loc 1 200 0 discriminator 3
 201 00a8 0023     		mov	r3, #0
 202 00aa FB60     		str	r3, [r7, #12]
 203 00ac 72E0     		b	.L8
 204              	.L16:
 201:.\Generated_Source\PSoC4/Sensor_ADC.c ****     {
 202:.\Generated_Source\PSoC4/Sensor_ADC.c ****         tmpRegVal = (Sensor_ADC_channelsConfig[chNum] & Sensor_ADC_CHANNEL_CONFIG_MASK);
 205              		.loc 1 202 0
 206 00ae 514B     		ldr	r3, .L17+84
 207 00b0 FA68     		ldr	r2, [r7, #12]
 208 00b2 9200     		lsl	r2, r2, #2
 209 00b4 D258     		ldr	r2, [r2, r3]
 210 00b6 DC23     		mov	r3, #220
 211 00b8 9B01     		lsl	r3, r3, #6
 212 00ba 1340     		and	r3, r2
 213 00bc 7B60     		str	r3, [r7, #4]
 203:.\Generated_Source\PSoC4/Sensor_ADC.c ****         #if(Sensor_ADC_TOTAL_CHANNELS_NUM > 1u)
 204:.\Generated_Source\PSoC4/Sensor_ADC.c ****             tmpRegVal |= Sensor_ADC_InputsPlacement[chNum];
 214              		.loc 1 204 0
 215 00be 4E4A     		ldr	r2, .L17+88
 216 00c0 FB68     		ldr	r3, [r7, #12]
 217 00c2 D318     		add	r3, r2, r3
 218 00c4 1B78     		ldrb	r3, [r3]
 219 00c6 7A68     		ldr	r2, [r7, #4]
 220 00c8 1343     		orr	r3, r2
 221 00ca 7B60     		str	r3, [r7, #4]
 205:.\Generated_Source\PSoC4/Sensor_ADC.c ****         #endif /* End Sensor_ADC_TOTAL_CHANNELS_NUM > 1u */
 206:.\Generated_Source\PSoC4/Sensor_ADC.c ****         
 207:.\Generated_Source\PSoC4/Sensor_ADC.c ****         
 208:.\Generated_Source\PSoC4/Sensor_ADC.c ****         /* When the part is limited to 10-bit then the SUB_RESOLUTION bit
 209:.\Generated_Source\PSoC4/Sensor_ADC.c ****         *  will be ignored and the RESOLUTION bit selects between 10-bit
 210:.\Generated_Source\PSoC4/Sensor_ADC.c ****         *  (0) and 8-bit (1) resolution.
 211:.\Generated_Source\PSoC4/Sensor_ADC.c ****         */
 212:.\Generated_Source\PSoC4/Sensor_ADC.c ****         #if((Sensor_ADC_MAX_RESOLUTION != Sensor_ADC_RESOLUTION_12) && \
 213:.\Generated_Source\PSoC4/Sensor_ADC.c ****             (Sensor_ADC_ALT_WOUNDING == Sensor_ADC_WOUNDING_10BIT))
 214:.\Generated_Source\PSoC4/Sensor_ADC.c ****             tmpRegVal &= (uint32)(~Sensor_ADC_ALT_RESOLUTION_ON);
 215:.\Generated_Source\PSoC4/Sensor_ADC.c ****         #endif /* Sensor_ADC_MAX_RESOLUTION != Sensor_ADC_RESOLUTION_12 */
 216:.\Generated_Source\PSoC4/Sensor_ADC.c **** 
 217:.\Generated_Source\PSoC4/Sensor_ADC.c ****         #if(Sensor_ADC_INJ_CHANNEL_ENABLED)
 218:.\Generated_Source\PSoC4/Sensor_ADC.c ****         if(chNum < Sensor_ADC_SEQUENCED_CHANNELS_NUM)
 219:.\Generated_Source\PSoC4/Sensor_ADC.c ****         #endif /* Sensor_ADC_INJ_CHANNEL_ENABLED */
 220:.\Generated_Source\PSoC4/Sensor_ADC.c ****         {
 221:.\Generated_Source\PSoC4/Sensor_ADC.c ****             CY_SET_REG32((reg32 *)(Sensor_ADC_SAR_CHAN_CONFIG_IND + (uint32)(chNum << 2)), tmpRegVa
 222              		.loc 1 221 0
 223 00cc FB68     		ldr	r3, [r7, #12]
 224 00ce 9B00     		lsl	r3, r3, #2
 225 00d0 4A4A     		ldr	r2, .L17+92
 226 00d2 9B18     		add	r3, r3, r2
 227 00d4 7A68     		ldr	r2, [r7, #4]
 228 00d6 1A60     		str	r2, [r3]
 222:.\Generated_Source\PSoC4/Sensor_ADC.c **** 
 223:.\Generated_Source\PSoC4/Sensor_ADC.c ****             if((Sensor_ADC_channelsConfig[chNum] & Sensor_ADC_IS_SATURATE_EN_MASK) != 0u)
 229              		.loc 1 223 0
ARM GAS  C:\Users\jsing\AppData\Local\Temp\ccIpowyF.s 			page 9


 230 00d8 464B     		ldr	r3, .L17+84
 231 00da FA68     		ldr	r2, [r7, #12]
 232 00dc 9200     		lsl	r2, r2, #2
 233 00de D258     		ldr	r2, [r2, r3]
 234 00e0 0123     		mov	r3, #1
 235 00e2 1340     		and	r3, r2
 236 00e4 0AD0     		beq	.L9
 224:.\Generated_Source\PSoC4/Sensor_ADC.c ****             {
 225:.\Generated_Source\PSoC4/Sensor_ADC.c ****                 Sensor_ADC_SAR_SATURATE_INTR_MASK_REG |= (uint16)((uint16)1 << chNum);
 237              		.loc 1 225 0
 238 00e6 3E4B     		ldr	r3, .L17+64
 239 00e8 3D4A     		ldr	r2, .L17+64
 240 00ea 1168     		ldr	r1, [r2]
 241 00ec FA68     		ldr	r2, [r7, #12]
 242 00ee 0120     		mov	r0, #1
 243 00f0 041C     		mov	r4, r0
 244 00f2 9440     		lsl	r4, r4, r2
 245 00f4 221C     		mov	r2, r4
 246 00f6 92B2     		uxth	r2, r2
 247 00f8 0A43     		orr	r2, r1
 248 00fa 1A60     		str	r2, [r3]
 249              	.L9:
 226:.\Generated_Source\PSoC4/Sensor_ADC.c ****             }
 227:.\Generated_Source\PSoC4/Sensor_ADC.c **** 
 228:.\Generated_Source\PSoC4/Sensor_ADC.c ****             if((Sensor_ADC_channelsConfig[chNum] & Sensor_ADC_IS_RANGE_CTRL_EN_MASK) != 0u)
 250              		.loc 1 228 0
 251 00fc 3D4B     		ldr	r3, .L17+84
 252 00fe FA68     		ldr	r2, [r7, #12]
 253 0100 9200     		lsl	r2, r2, #2
 254 0102 D258     		ldr	r2, [r2, r3]
 255 0104 0223     		mov	r3, #2
 256 0106 1340     		and	r3, r2
 257 0108 0AD0     		beq	.L10
 229:.\Generated_Source\PSoC4/Sensor_ADC.c ****             {
 230:.\Generated_Source\PSoC4/Sensor_ADC.c ****                 Sensor_ADC_SAR_RANGE_INTR_MASK_REG |= (uint16)((uint16)1 << chNum);
 258              		.loc 1 230 0
 259 010a 364B     		ldr	r3, .L17+68
 260 010c 354A     		ldr	r2, .L17+68
 261 010e 1168     		ldr	r1, [r2]
 262 0110 FA68     		ldr	r2, [r7, #12]
 263 0112 0120     		mov	r0, #1
 264 0114 041C     		mov	r4, r0
 265 0116 9440     		lsl	r4, r4, r2
 266 0118 221C     		mov	r2, r4
 267 011a 92B2     		uxth	r2, r2
 268 011c 0A43     		orr	r2, r1
 269 011e 1A60     		str	r2, [r3]
 270              	.L10:
 231:.\Generated_Source\PSoC4/Sensor_ADC.c ****             }
 232:.\Generated_Source\PSoC4/Sensor_ADC.c ****         }
 233:.\Generated_Source\PSoC4/Sensor_ADC.c ****         #if(Sensor_ADC_INJ_CHANNEL_ENABLED)
 234:.\Generated_Source\PSoC4/Sensor_ADC.c ****             else
 235:.\Generated_Source\PSoC4/Sensor_ADC.c ****             {
 236:.\Generated_Source\PSoC4/Sensor_ADC.c ****                 CY_SET_REG32(Sensor_ADC_SAR_INJ_CHAN_CONFIG_PTR, tmpRegVal | Sensor_ADC_INJ_TAILGAT
 237:.\Generated_Source\PSoC4/Sensor_ADC.c **** 
 238:.\Generated_Source\PSoC4/Sensor_ADC.c ****                 if((Sensor_ADC_channelsConfig[chNum] & Sensor_ADC_IS_SATURATE_EN_MASK) != 0u)
 239:.\Generated_Source\PSoC4/Sensor_ADC.c ****                 {
ARM GAS  C:\Users\jsing\AppData\Local\Temp\ccIpowyF.s 			page 10


 240:.\Generated_Source\PSoC4/Sensor_ADC.c ****                     Sensor_ADC_SAR_INTR_MASK_REG |= Sensor_ADC_INJ_SATURATE_MASK;
 241:.\Generated_Source\PSoC4/Sensor_ADC.c ****                 }
 242:.\Generated_Source\PSoC4/Sensor_ADC.c **** 
 243:.\Generated_Source\PSoC4/Sensor_ADC.c ****                 if((Sensor_ADC_channelsConfig[chNum] & Sensor_ADC_IS_RANGE_CTRL_EN_MASK) != 0u)
 244:.\Generated_Source\PSoC4/Sensor_ADC.c ****                 {
 245:.\Generated_Source\PSoC4/Sensor_ADC.c ****                     Sensor_ADC_SAR_INTR_MASK_REG |= Sensor_ADC_INJ_RANGE_MASK;
 246:.\Generated_Source\PSoC4/Sensor_ADC.c ****                 }
 247:.\Generated_Source\PSoC4/Sensor_ADC.c ****             }
 248:.\Generated_Source\PSoC4/Sensor_ADC.c ****         #endif /* Sensor_ADC_INJ_CHANNEL_ENABLED */
 249:.\Generated_Source\PSoC4/Sensor_ADC.c **** 
 250:.\Generated_Source\PSoC4/Sensor_ADC.c ****         if((Sensor_ADC_channelsConfig[chNum] & Sensor_ADC_ALT_RESOLUTION_ON) != 0u)
 271              		.loc 1 250 0
 272 0120 344B     		ldr	r3, .L17+84
 273 0122 FA68     		ldr	r2, [r7, #12]
 274 0124 9200     		lsl	r2, r2, #2
 275 0126 D258     		ldr	r2, [r2, r3]
 276 0128 8023     		mov	r3, #128
 277 012a 9B00     		lsl	r3, r3, #2
 278 012c 1340     		and	r3, r2
 279 012e 03D0     		beq	.L11
 251:.\Generated_Source\PSoC4/Sensor_ADC.c ****         {
 252:.\Generated_Source\PSoC4/Sensor_ADC.c ****                counts = (int32)Sensor_ADC_DEFAULT_MAX_WRK_ALT;
 280              		.loc 1 252 0
 281 0130 8023     		mov	r3, #128
 282 0132 DB00     		lsl	r3, r3, #3
 283 0134 BB60     		str	r3, [r7, #8]
 284 0136 02E0     		b	.L12
 285              	.L11:
 253:.\Generated_Source\PSoC4/Sensor_ADC.c ****         }
 254:.\Generated_Source\PSoC4/Sensor_ADC.c ****         else
 255:.\Generated_Source\PSoC4/Sensor_ADC.c ****         {
 256:.\Generated_Source\PSoC4/Sensor_ADC.c ****                counts = (int32)Sensor_ADC_SAR_WRK_MAX_12BIT;
 286              		.loc 1 256 0
 287 0138 8023     		mov	r3, #128
 288 013a 5B01     		lsl	r3, r3, #5
 289 013c BB60     		str	r3, [r7, #8]
 290              	.L12:
 257:.\Generated_Source\PSoC4/Sensor_ADC.c ****         }
 258:.\Generated_Source\PSoC4/Sensor_ADC.c **** 
 259:.\Generated_Source\PSoC4/Sensor_ADC.c ****         if((Sensor_ADC_channelsConfig[chNum] & Sensor_ADC_DIFFERENTIAL_EN) == 0u)
 291              		.loc 1 259 0
 292 013e 2D4B     		ldr	r3, .L17+84
 293 0140 FA68     		ldr	r2, [r7, #12]
 294 0142 9200     		lsl	r2, r2, #2
 295 0144 D258     		ldr	r2, [r2, r3]
 296 0146 8023     		mov	r3, #128
 297 0148 5B00     		lsl	r3, r3, #1
 298 014a 1340     		and	r3, r2
 299 014c 05D1     		bne	.L13
 260:.\Generated_Source\PSoC4/Sensor_ADC.c ****         {
 261:.\Generated_Source\PSoC4/Sensor_ADC.c ****             #if((Sensor_ADC_DEFAULT_SE_RESULT_FORMAT_SEL == Sensor_ADC__FSIGNED) && \
 262:.\Generated_Source\PSoC4/Sensor_ADC.c ****                 (Sensor_ADC_DEFAULT_NEG_INPUT_SEL == Sensor_ADC__VREF))
 263:.\Generated_Source\PSoC4/Sensor_ADC.c ****                 /* Set offset to the minus half scale to convert results to unsigned format */
 264:.\Generated_Source\PSoC4/Sensor_ADC.c ****                 Sensor_ADC_offset[chNum] = (int16)(counts / -2);
 265:.\Generated_Source\PSoC4/Sensor_ADC.c ****             #else
 266:.\Generated_Source\PSoC4/Sensor_ADC.c ****                 Sensor_ADC_offset[chNum] = 0;
 300              		.loc 1 266 0
ARM GAS  C:\Users\jsing\AppData\Local\Temp\ccIpowyF.s 			page 11


 301 014e 2C4B     		ldr	r3, .L17+96
 302 0150 FA68     		ldr	r2, [r7, #12]
 303 0152 5200     		lsl	r2, r2, #1
 304 0154 0021     		mov	r1, #0
 305 0156 D152     		strh	r1, [r2, r3]
 306 0158 09E0     		b	.L14
 307              	.L13:
 267:.\Generated_Source\PSoC4/Sensor_ADC.c ****             #endif /* end DEFAULT_SE_RESULT_FORMAT_SEL == Sensor_ADC__FSIGNED */
 268:.\Generated_Source\PSoC4/Sensor_ADC.c ****         }
 269:.\Generated_Source\PSoC4/Sensor_ADC.c ****         else    /* Differential channel */
 270:.\Generated_Source\PSoC4/Sensor_ADC.c ****         {
 271:.\Generated_Source\PSoC4/Sensor_ADC.c ****             #if(Sensor_ADC_DEFAULT_DIFF_RESULT_FORMAT_SEL == Sensor_ADC__FUNSIGNED)
 272:.\Generated_Source\PSoC4/Sensor_ADC.c ****                 /* Set offset to the half scale to convert results to signed format */
 273:.\Generated_Source\PSoC4/Sensor_ADC.c ****                 Sensor_ADC_offset[chNum] = (int16)(counts / 2);
 308              		.loc 1 273 0
 309 015a BB68     		ldr	r3, [r7, #8]
 310 015c 002B     		cmp	r3, #0
 311 015e 00DA     		bge	.L15
 312 0160 0133     		add	r3, r3, #1
 313              	.L15:
 314 0162 5B10     		asr	r3, r3, #1
 315 0164 99B2     		uxth	r1, r3
 316 0166 264B     		ldr	r3, .L17+96
 317 0168 FA68     		ldr	r2, [r7, #12]
 318 016a 5200     		lsl	r2, r2, #1
 319 016c D152     		strh	r1, [r2, r3]
 320              	.L14:
 274:.\Generated_Source\PSoC4/Sensor_ADC.c ****             #else
 275:.\Generated_Source\PSoC4/Sensor_ADC.c ****                 Sensor_ADC_offset[chNum] = 0;
 276:.\Generated_Source\PSoC4/Sensor_ADC.c ****             #endif /* end Sensor_ADC_DEFAULT_DIFF_RESULT_FORMAT_SEL == Sensor_ADC__FUNSIGNED */
 277:.\Generated_Source\PSoC4/Sensor_ADC.c ****         }
 278:.\Generated_Source\PSoC4/Sensor_ADC.c ****         /* Calculate gain in counts per 10 volts with rounding */
 279:.\Generated_Source\PSoC4/Sensor_ADC.c ****         Sensor_ADC_countsPer10Volt[chNum] = (int16)(((counts * Sensor_ADC_10MV_COUNTS) +
 321              		.loc 1 279 0
 322 016e BB68     		ldr	r3, [r7, #8]
 323 0170 244A     		ldr	r2, .L17+100
 324 0172 5343     		mul	r3, r2
 325 0174 244A     		ldr	r2, .L17+104
 326 0176 9B18     		add	r3, r3, r2
 280:.\Generated_Source\PSoC4/Sensor_ADC.c ****                             Sensor_ADC_DEFAULT_VREF_MV_VALUE) / (Sensor_ADC_DEFAULT_VREF_MV_VALUE *
 327              		.loc 1 280 0
 328 0178 181C     		mov	r0, r3
 329 017a 2449     		ldr	r1, .L17+108
 330 017c FFF7FEFF 		bl	__aeabi_idiv
 331 0180 031C     		mov	r3, r0
 279:.\Generated_Source\PSoC4/Sensor_ADC.c ****         Sensor_ADC_countsPer10Volt[chNum] = (int16)(((counts * Sensor_ADC_10MV_COUNTS) +
 332              		.loc 1 279 0
 333 0182 9BB2     		uxth	r3, r3
 334 0184 19B2     		sxth	r1, r3
 335 0186 224B     		ldr	r3, .L17+112
 336 0188 FA68     		ldr	r2, [r7, #12]
 337 018a 9200     		lsl	r2, r2, #2
 338 018c D150     		str	r1, [r2, r3]
 200:.\Generated_Source\PSoC4/Sensor_ADC.c ****     for(chNum = 0u; chNum < Sensor_ADC_TOTAL_CHANNELS_NUM; chNum++)
 339              		.loc 1 200 0
 340 018e FB68     		ldr	r3, [r7, #12]
 341 0190 0133     		add	r3, r3, #1
ARM GAS  C:\Users\jsing\AppData\Local\Temp\ccIpowyF.s 			page 12


 342 0192 FB60     		str	r3, [r7, #12]
 343              	.L8:
 200:.\Generated_Source\PSoC4/Sensor_ADC.c ****     for(chNum = 0u; chNum < Sensor_ADC_TOTAL_CHANNELS_NUM; chNum++)
 344              		.loc 1 200 0 is_stmt 0 discriminator 1
 345 0194 FB68     		ldr	r3, [r7, #12]
 346 0196 022B     		cmp	r3, #2
 347 0198 89D9     		bls	.L16
 281:.\Generated_Source\PSoC4/Sensor_ADC.c ****     }
 282:.\Generated_Source\PSoC4/Sensor_ADC.c **** }
 348              		.loc 1 282 0 is_stmt 1
 349 019a BD46     		mov	sp, r7
 350 019c 05B0     		add	sp, sp, #20
 351              		@ sp needed
 352 019e 90BD     		pop	{r4, r7, pc}
 353              	.L18:
 354              		.align	2
 355              	.L17:
 356 01a0 00000000 		.word	Sensor_ADC_ISR
 357 01a4 20003A40 		.word	1077542944
 358 01a8 00003A40 		.word	1077542912
 359 01ac 80033A40 		.word	1077543808
 360 01b0 70201013 		.word	319823984
 361 01b4 70200013 		.word	318775408
 362 01b8 04003A40 		.word	1077542916
 363 01bc 25000080 		.word	-2147483611
 364 01c0 18003A40 		.word	1077542936
 365 01c4 0000FF07 		.word	134152192
 366 01c8 1C003A40 		.word	1077542940
 367 01cc 10003A40 		.word	1077542928
 368 01d0 08000800 		.word	524296
 369 01d4 14003A40 		.word	1077542932
 370 01d8 00033A40 		.word	1077543680
 371 01dc 40033A40 		.word	1077543744
 372 01e0 28023A40 		.word	1077543464
 373 01e4 38023A40 		.word	1077543480
 374 01e8 18023A40 		.word	1077543448
 375 01ec 30003A40 		.word	1077542960
 376 01f0 FFFFFFDF 		.word	-536870913
 377 01f4 00000000 		.word	Sensor_ADC_channelsConfig
 378 01f8 0C000000 		.word	Sensor_ADC_InputsPlacement.4747
 379 01fc 80003A40 		.word	1077543040
 380 0200 00000000 		.word	Sensor_ADC_offset
 381 0204 10270000 		.word	10000
 382 0208 E40C0000 		.word	3300
 383 020c C8190000 		.word	6600
 384 0210 00000000 		.word	Sensor_ADC_countsPer10Volt
 385              		.cfi_endproc
 386              	.LFE3:
 387              		.size	Sensor_ADC_Init, .-Sensor_ADC_Init
 388              		.section	.text.Sensor_ADC_Enable,"ax",%progbits
 389              		.align	2
 390              		.global	Sensor_ADC_Enable
 391              		.code	16
 392              		.thumb_func
 393              		.type	Sensor_ADC_Enable, %function
 394              	Sensor_ADC_Enable:
 395              	.LFB4:
ARM GAS  C:\Users\jsing\AppData\Local\Temp\ccIpowyF.s 			page 13


 283:.\Generated_Source\PSoC4/Sensor_ADC.c **** 
 284:.\Generated_Source\PSoC4/Sensor_ADC.c **** /*******************************************************************************
 285:.\Generated_Source\PSoC4/Sensor_ADC.c **** * Function Name: ADC_SAR_1_Enable
 286:.\Generated_Source\PSoC4/Sensor_ADC.c **** ********************************************************************************
 287:.\Generated_Source\PSoC4/Sensor_ADC.c **** *
 288:.\Generated_Source\PSoC4/Sensor_ADC.c **** * Summary:
 289:.\Generated_Source\PSoC4/Sensor_ADC.c **** *  Enables the clock and analog power for SAR ADC.
 290:.\Generated_Source\PSoC4/Sensor_ADC.c **** *
 291:.\Generated_Source\PSoC4/Sensor_ADC.c **** * Parameters:
 292:.\Generated_Source\PSoC4/Sensor_ADC.c **** *  None.
 293:.\Generated_Source\PSoC4/Sensor_ADC.c **** *
 294:.\Generated_Source\PSoC4/Sensor_ADC.c **** * Return:
 295:.\Generated_Source\PSoC4/Sensor_ADC.c **** *  None.
 296:.\Generated_Source\PSoC4/Sensor_ADC.c **** *
 297:.\Generated_Source\PSoC4/Sensor_ADC.c **** *******************************************************************************/
 298:.\Generated_Source\PSoC4/Sensor_ADC.c **** void Sensor_ADC_Enable(void)
 299:.\Generated_Source\PSoC4/Sensor_ADC.c **** {
 396              		.loc 1 299 0
 397              		.cfi_startproc
 398 0000 80B5     		push	{r7, lr}
 399              		.cfi_def_cfa_offset 8
 400              		.cfi_offset 7, -8
 401              		.cfi_offset 14, -4
 402 0002 00AF     		add	r7, sp, #0
 403              		.cfi_def_cfa_register 7
 300:.\Generated_Source\PSoC4/Sensor_ADC.c ****     if (0u == (Sensor_ADC_SAR_CTRL_REG & Sensor_ADC_ENABLE))
 404              		.loc 1 300 0
 405 0004 0A4B     		ldr	r3, .L22
 406 0006 1B68     		ldr	r3, [r3]
 407 0008 002B     		cmp	r3, #0
 408 000a 0EDB     		blt	.L19
 301:.\Generated_Source\PSoC4/Sensor_ADC.c ****     {
 302:.\Generated_Source\PSoC4/Sensor_ADC.c ****         #if(Sensor_ADC_CY_SAR_IP_VER != Sensor_ADC_CY_SAR_IP_PSOC4)
 303:.\Generated_Source\PSoC4/Sensor_ADC.c **** 
 304:.\Generated_Source\PSoC4/Sensor_ADC.c ****             while (0u != (Sensor_ADC_SAR_STATUS_REG & Sensor_ADC_STATUS_BUSY))
 409              		.loc 1 304 0
 410 000c C046     		mov	r8, r8
 411              	.L21:
 412              		.loc 1 304 0 is_stmt 0 discriminator 1
 413 000e 094B     		ldr	r3, .L22+4
 414 0010 1B68     		ldr	r3, [r3]
 415 0012 002B     		cmp	r3, #0
 416 0014 FBDB     		blt	.L21
 305:.\Generated_Source\PSoC4/Sensor_ADC.c ****             {
 306:.\Generated_Source\PSoC4/Sensor_ADC.c ****                 /* wait for SAR to go idle for to avoid deadlock */
 307:.\Generated_Source\PSoC4/Sensor_ADC.c ****             }
 308:.\Generated_Source\PSoC4/Sensor_ADC.c ****         #endif /* (Sensor_ADC_CY_SAR_IP_VER != Sensor_ADC_CY_SAR_IP_PSOC4) */
 309:.\Generated_Source\PSoC4/Sensor_ADC.c ****         
 310:.\Generated_Source\PSoC4/Sensor_ADC.c ****         Sensor_ADC_SAR_CTRL_REG |= Sensor_ADC_ENABLE;
 417              		.loc 1 310 0 is_stmt 1
 418 0016 064B     		ldr	r3, .L22
 419 0018 054A     		ldr	r2, .L22
 420 001a 1268     		ldr	r2, [r2]
 421 001c 8021     		mov	r1, #128
 422 001e 0906     		lsl	r1, r1, #24
 423 0020 0A43     		orr	r2, r1
 424 0022 1A60     		str	r2, [r3]
ARM GAS  C:\Users\jsing\AppData\Local\Temp\ccIpowyF.s 			page 14


 311:.\Generated_Source\PSoC4/Sensor_ADC.c ****         
 312:.\Generated_Source\PSoC4/Sensor_ADC.c ****         /* The block is ready to use 10 us after the enable signal is set high. */
 313:.\Generated_Source\PSoC4/Sensor_ADC.c ****         CyDelayUs(Sensor_ADC_10US_DELAY);         
 425              		.loc 1 313 0
 426 0024 0A20     		mov	r0, #10
 427 0026 FFF7FEFF 		bl	CyDelayUs
 428              	.L19:
 314:.\Generated_Source\PSoC4/Sensor_ADC.c ****     }
 315:.\Generated_Source\PSoC4/Sensor_ADC.c **** }
 429              		.loc 1 315 0
 430 002a BD46     		mov	sp, r7
 431              		@ sp needed
 432 002c 80BD     		pop	{r7, pc}
 433              	.L23:
 434 002e C046     		.align	2
 435              	.L22:
 436 0030 00003A40 		.word	1077542912
 437 0034 08023A40 		.word	1077543432
 438              		.cfi_endproc
 439              	.LFE4:
 440              		.size	Sensor_ADC_Enable, .-Sensor_ADC_Enable
 441              		.section	.text.Sensor_ADC_Stop,"ax",%progbits
 442              		.align	2
 443              		.global	Sensor_ADC_Stop
 444              		.code	16
 445              		.thumb_func
 446              		.type	Sensor_ADC_Stop, %function
 447              	Sensor_ADC_Stop:
 448              	.LFB5:
 316:.\Generated_Source\PSoC4/Sensor_ADC.c **** 
 317:.\Generated_Source\PSoC4/Sensor_ADC.c **** 
 318:.\Generated_Source\PSoC4/Sensor_ADC.c **** /*******************************************************************************
 319:.\Generated_Source\PSoC4/Sensor_ADC.c **** * Function Name: Sensor_ADC_Stop
 320:.\Generated_Source\PSoC4/Sensor_ADC.c **** ********************************************************************************
 321:.\Generated_Source\PSoC4/Sensor_ADC.c **** *
 322:.\Generated_Source\PSoC4/Sensor_ADC.c **** * Summary:
 323:.\Generated_Source\PSoC4/Sensor_ADC.c **** *  This function stops ADC conversions and puts the ADC into its lowest power
 324:.\Generated_Source\PSoC4/Sensor_ADC.c **** *  mode.
 325:.\Generated_Source\PSoC4/Sensor_ADC.c **** *
 326:.\Generated_Source\PSoC4/Sensor_ADC.c **** * Parameters:
 327:.\Generated_Source\PSoC4/Sensor_ADC.c **** *  None.
 328:.\Generated_Source\PSoC4/Sensor_ADC.c **** *
 329:.\Generated_Source\PSoC4/Sensor_ADC.c **** * Return:
 330:.\Generated_Source\PSoC4/Sensor_ADC.c **** *  None.
 331:.\Generated_Source\PSoC4/Sensor_ADC.c **** *
 332:.\Generated_Source\PSoC4/Sensor_ADC.c **** *******************************************************************************/
 333:.\Generated_Source\PSoC4/Sensor_ADC.c **** void Sensor_ADC_Stop(void)
 334:.\Generated_Source\PSoC4/Sensor_ADC.c **** {
 449              		.loc 1 334 0
 450              		.cfi_startproc
 451 0000 80B5     		push	{r7, lr}
 452              		.cfi_def_cfa_offset 8
 453              		.cfi_offset 7, -8
 454              		.cfi_offset 14, -4
 455 0002 00AF     		add	r7, sp, #0
 456              		.cfi_def_cfa_register 7
 335:.\Generated_Source\PSoC4/Sensor_ADC.c ****     Sensor_ADC_SAR_CTRL_REG &= (uint32)~Sensor_ADC_ENABLE;
ARM GAS  C:\Users\jsing\AppData\Local\Temp\ccIpowyF.s 			page 15


 457              		.loc 1 335 0
 458 0004 034B     		ldr	r3, .L25
 459 0006 034A     		ldr	r2, .L25
 460 0008 1268     		ldr	r2, [r2]
 461 000a 5200     		lsl	r2, r2, #1
 462 000c 5208     		lsr	r2, r2, #1
 463 000e 1A60     		str	r2, [r3]
 336:.\Generated_Source\PSoC4/Sensor_ADC.c **** }
 464              		.loc 1 336 0
 465 0010 BD46     		mov	sp, r7
 466              		@ sp needed
 467 0012 80BD     		pop	{r7, pc}
 468              	.L26:
 469              		.align	2
 470              	.L25:
 471 0014 00003A40 		.word	1077542912
 472              		.cfi_endproc
 473              	.LFE5:
 474              		.size	Sensor_ADC_Stop, .-Sensor_ADC_Stop
 475              		.section	.text.Sensor_ADC_StartConvert,"ax",%progbits
 476              		.align	2
 477              		.global	Sensor_ADC_StartConvert
 478              		.code	16
 479              		.thumb_func
 480              		.type	Sensor_ADC_StartConvert, %function
 481              	Sensor_ADC_StartConvert:
 482              	.LFB6:
 337:.\Generated_Source\PSoC4/Sensor_ADC.c **** 
 338:.\Generated_Source\PSoC4/Sensor_ADC.c **** 
 339:.\Generated_Source\PSoC4/Sensor_ADC.c **** /*******************************************************************************
 340:.\Generated_Source\PSoC4/Sensor_ADC.c **** * Function Name: Sensor_ADC_StartConvert
 341:.\Generated_Source\PSoC4/Sensor_ADC.c **** ********************************************************************************
 342:.\Generated_Source\PSoC4/Sensor_ADC.c **** *
 343:.\Generated_Source\PSoC4/Sensor_ADC.c **** * Summary:
 344:.\Generated_Source\PSoC4/Sensor_ADC.c **** *  Description:
 345:.\Generated_Source\PSoC4/Sensor_ADC.c **** *  For free running mode, this API starts the conversion process and it
 346:.\Generated_Source\PSoC4/Sensor_ADC.c **** *  runs continuously.
 347:.\Generated_Source\PSoC4/Sensor_ADC.c **** *
 348:.\Generated_Source\PSoC4/Sensor_ADC.c **** *  In a triggered mode, this routine triggers every conversion by
 349:.\Generated_Source\PSoC4/Sensor_ADC.c **** *  writing into the FW_TRIGGER bit in SAR_START_CTRL reg. In triggered mode,
 350:.\Generated_Source\PSoC4/Sensor_ADC.c **** *  every conversion has to start by this API.
 351:.\Generated_Source\PSoC4/Sensor_ADC.c **** *
 352:.\Generated_Source\PSoC4/Sensor_ADC.c **** * Parameters:
 353:.\Generated_Source\PSoC4/Sensor_ADC.c **** *  None.
 354:.\Generated_Source\PSoC4/Sensor_ADC.c **** *
 355:.\Generated_Source\PSoC4/Sensor_ADC.c **** * Return:
 356:.\Generated_Source\PSoC4/Sensor_ADC.c **** *  None.
 357:.\Generated_Source\PSoC4/Sensor_ADC.c **** *
 358:.\Generated_Source\PSoC4/Sensor_ADC.c **** *******************************************************************************/
 359:.\Generated_Source\PSoC4/Sensor_ADC.c **** void Sensor_ADC_StartConvert(void)
 360:.\Generated_Source\PSoC4/Sensor_ADC.c **** {
 483              		.loc 1 360 0
 484              		.cfi_startproc
 485 0000 80B5     		push	{r7, lr}
 486              		.cfi_def_cfa_offset 8
 487              		.cfi_offset 7, -8
 488              		.cfi_offset 14, -4
ARM GAS  C:\Users\jsing\AppData\Local\Temp\ccIpowyF.s 			page 16


 489 0002 00AF     		add	r7, sp, #0
 490              		.cfi_def_cfa_register 7
 361:.\Generated_Source\PSoC4/Sensor_ADC.c ****     #if(Sensor_ADC_DEFAULT_SAMPLE_MODE_SEL == Sensor_ADC__FREERUNNING)
 362:.\Generated_Source\PSoC4/Sensor_ADC.c ****         Sensor_ADC_SAR_SAMPLE_CTRL_REG |= Sensor_ADC_CONTINUOUS_EN;
 491              		.loc 1 362 0
 492 0004 044B     		ldr	r3, .L28
 493 0006 044A     		ldr	r2, .L28
 494 0008 1268     		ldr	r2, [r2]
 495 000a 8021     		mov	r1, #128
 496 000c 4902     		lsl	r1, r1, #9
 497 000e 0A43     		orr	r2, r1
 498 0010 1A60     		str	r2, [r3]
 363:.\Generated_Source\PSoC4/Sensor_ADC.c ****     #else /* Firmware trigger */
 364:.\Generated_Source\PSoC4/Sensor_ADC.c ****         Sensor_ADC_SAR_START_CTRL_REG = Sensor_ADC_FW_TRIGGER;
 365:.\Generated_Source\PSoC4/Sensor_ADC.c ****     #endif /* End Sensor_ADC_DEFAULT_SAMPLE_MODE == Sensor_ADC__FREERUNNING */
 366:.\Generated_Source\PSoC4/Sensor_ADC.c **** 
 367:.\Generated_Source\PSoC4/Sensor_ADC.c **** }
 499              		.loc 1 367 0
 500 0012 BD46     		mov	sp, r7
 501              		@ sp needed
 502 0014 80BD     		pop	{r7, pc}
 503              	.L29:
 504 0016 C046     		.align	2
 505              	.L28:
 506 0018 04003A40 		.word	1077542916
 507              		.cfi_endproc
 508              	.LFE6:
 509              		.size	Sensor_ADC_StartConvert, .-Sensor_ADC_StartConvert
 510              		.section	.text.Sensor_ADC_StopConvert,"ax",%progbits
 511              		.align	2
 512              		.global	Sensor_ADC_StopConvert
 513              		.code	16
 514              		.thumb_func
 515              		.type	Sensor_ADC_StopConvert, %function
 516              	Sensor_ADC_StopConvert:
 517              	.LFB7:
 368:.\Generated_Source\PSoC4/Sensor_ADC.c **** 
 369:.\Generated_Source\PSoC4/Sensor_ADC.c **** 
 370:.\Generated_Source\PSoC4/Sensor_ADC.c **** /*******************************************************************************
 371:.\Generated_Source\PSoC4/Sensor_ADC.c **** * Function Name: Sensor_ADC_StopConvert
 372:.\Generated_Source\PSoC4/Sensor_ADC.c **** ********************************************************************************
 373:.\Generated_Source\PSoC4/Sensor_ADC.c **** *
 374:.\Generated_Source\PSoC4/Sensor_ADC.c **** * Summary:
 375:.\Generated_Source\PSoC4/Sensor_ADC.c **** *  Forces the ADC to stop all conversions.
 376:.\Generated_Source\PSoC4/Sensor_ADC.c **** *
 377:.\Generated_Source\PSoC4/Sensor_ADC.c **** * Parameters:
 378:.\Generated_Source\PSoC4/Sensor_ADC.c **** *  None.
 379:.\Generated_Source\PSoC4/Sensor_ADC.c **** *
 380:.\Generated_Source\PSoC4/Sensor_ADC.c **** * Return:
 381:.\Generated_Source\PSoC4/Sensor_ADC.c **** *  None.
 382:.\Generated_Source\PSoC4/Sensor_ADC.c **** *
 383:.\Generated_Source\PSoC4/Sensor_ADC.c **** *******************************************************************************/
 384:.\Generated_Source\PSoC4/Sensor_ADC.c **** void Sensor_ADC_StopConvert(void)
 385:.\Generated_Source\PSoC4/Sensor_ADC.c **** {
 518              		.loc 1 385 0
 519              		.cfi_startproc
 520 0000 80B5     		push	{r7, lr}
ARM GAS  C:\Users\jsing\AppData\Local\Temp\ccIpowyF.s 			page 17


 521              		.cfi_def_cfa_offset 8
 522              		.cfi_offset 7, -8
 523              		.cfi_offset 14, -4
 524 0002 00AF     		add	r7, sp, #0
 525              		.cfi_def_cfa_register 7
 386:.\Generated_Source\PSoC4/Sensor_ADC.c ****     #if(Sensor_ADC_DEFAULT_SAMPLE_MODE_SEL == Sensor_ADC__FREERUNNING)
 387:.\Generated_Source\PSoC4/Sensor_ADC.c ****         Sensor_ADC_SAR_SAMPLE_CTRL_REG &= (uint32)(~Sensor_ADC_CONTINUOUS_EN);
 526              		.loc 1 387 0
 527 0004 034B     		ldr	r3, .L31
 528 0006 034A     		ldr	r2, .L31
 529 0008 1168     		ldr	r1, [r2]
 530 000a 034A     		ldr	r2, .L31+4
 531 000c 0A40     		and	r2, r1
 532 000e 1A60     		str	r2, [r3]
 388:.\Generated_Source\PSoC4/Sensor_ADC.c ****     #endif /* Sensor_ADC_DEFAULT_SAMPLE_MODE == Sensor_ADC__FREERUNNING */
 389:.\Generated_Source\PSoC4/Sensor_ADC.c **** }
 533              		.loc 1 389 0
 534 0010 BD46     		mov	sp, r7
 535              		@ sp needed
 536 0012 80BD     		pop	{r7, pc}
 537              	.L32:
 538              		.align	2
 539              	.L31:
 540 0014 04003A40 		.word	1077542916
 541 0018 FFFFFEFF 		.word	-65537
 542              		.cfi_endproc
 543              	.LFE7:
 544              		.size	Sensor_ADC_StopConvert, .-Sensor_ADC_StopConvert
 545              		.section	.text.Sensor_ADC_IsEndConversion,"ax",%progbits
 546              		.align	2
 547              		.global	Sensor_ADC_IsEndConversion
 548              		.code	16
 549              		.thumb_func
 550              		.type	Sensor_ADC_IsEndConversion, %function
 551              	Sensor_ADC_IsEndConversion:
 552              	.LFB8:
 390:.\Generated_Source\PSoC4/Sensor_ADC.c **** 
 391:.\Generated_Source\PSoC4/Sensor_ADC.c **** 
 392:.\Generated_Source\PSoC4/Sensor_ADC.c **** /*******************************************************************************
 393:.\Generated_Source\PSoC4/Sensor_ADC.c **** * Function Name: Sensor_ADC_IsEndConversion
 394:.\Generated_Source\PSoC4/Sensor_ADC.c **** ********************************************************************************
 395:.\Generated_Source\PSoC4/Sensor_ADC.c **** *
 396:.\Generated_Source\PSoC4/Sensor_ADC.c **** * Summary:
 397:.\Generated_Source\PSoC4/Sensor_ADC.c **** *  Description: Checks for ADC end of conversion for the case one
 398:.\Generated_Source\PSoC4/Sensor_ADC.c **** *  channel and end of scan for the case of multiple channels. It acts
 399:.\Generated_Source\PSoC4/Sensor_ADC.c **** *  as a software version of the EOC. This function provides the
 400:.\Generated_Source\PSoC4/Sensor_ADC.c **** *  programmer with two options. In one mode this function
 401:.\Generated_Source\PSoC4/Sensor_ADC.c **** *  immediately returns with the conversion status. In the other mode,
 402:.\Generated_Source\PSoC4/Sensor_ADC.c **** *  the function does not return (blocking) until the conversion has
 403:.\Generated_Source\PSoC4/Sensor_ADC.c **** *  completed.
 404:.\Generated_Source\PSoC4/Sensor_ADC.c **** *
 405:.\Generated_Source\PSoC4/Sensor_ADC.c **** * Parameters:
 406:.\Generated_Source\PSoC4/Sensor_ADC.c **** *  ADC_RETURN_STATUS        -> Immediately returns conversion result status
 407:.\Generated_Source\PSoC4/Sensor_ADC.c **** *  ADC_WAIT_FOR_RESULT      -> Does not return until ADC complete
 408:.\Generated_Source\PSoC4/Sensor_ADC.c **** *  ADC_RETURN_STATUS_INJ    -> Immediately returns conversion result status
 409:.\Generated_Source\PSoC4/Sensor_ADC.c **** *                              for injection channel
 410:.\Generated_Source\PSoC4/Sensor_ADC.c **** *  ADC_WAIT_FOR_RESULT_INJ  -> Does not return until ADC completes injection
ARM GAS  C:\Users\jsing\AppData\Local\Temp\ccIpowyF.s 			page 18


 411:.\Generated_Source\PSoC4/Sensor_ADC.c **** *                              channel conversion
 412:.\Generated_Source\PSoC4/Sensor_ADC.c **** *
 413:.\Generated_Source\PSoC4/Sensor_ADC.c **** * Return:
 414:.\Generated_Source\PSoC4/Sensor_ADC.c **** *  If a non-zero value is returned, the last conversion or scan has completed.
 415:.\Generated_Source\PSoC4/Sensor_ADC.c **** *  If the returned value is zero, the ADC is still in the process of a scan.
 416:.\Generated_Source\PSoC4/Sensor_ADC.c **** *
 417:.\Generated_Source\PSoC4/Sensor_ADC.c **** *******************************************************************************/
 418:.\Generated_Source\PSoC4/Sensor_ADC.c **** uint32 Sensor_ADC_IsEndConversion(uint32 retMode)
 419:.\Generated_Source\PSoC4/Sensor_ADC.c **** {
 553              		.loc 1 419 0
 554              		.cfi_startproc
 555 0000 80B5     		push	{r7, lr}
 556              		.cfi_def_cfa_offset 8
 557              		.cfi_offset 7, -8
 558              		.cfi_offset 14, -4
 559 0002 84B0     		sub	sp, sp, #16
 560              		.cfi_def_cfa_offset 24
 561 0004 00AF     		add	r7, sp, #0
 562              		.cfi_def_cfa_register 7
 563 0006 7860     		str	r0, [r7, #4]
 420:.\Generated_Source\PSoC4/Sensor_ADC.c ****     uint32 status = 0u;
 564              		.loc 1 420 0
 565 0008 0023     		mov	r3, #0
 566 000a FB60     		str	r3, [r7, #12]
 421:.\Generated_Source\PSoC4/Sensor_ADC.c **** 
 422:.\Generated_Source\PSoC4/Sensor_ADC.c ****     if((retMode & (Sensor_ADC_RETURN_STATUS | Sensor_ADC_WAIT_FOR_RESULT)) != 0u)
 567              		.loc 1 422 0
 568 000c 7A68     		ldr	r2, [r7, #4]
 569 000e 0323     		mov	r3, #3
 570 0010 1340     		and	r3, r2
 571 0012 11D0     		beq	.L34
 572              	.L36:
 423:.\Generated_Source\PSoC4/Sensor_ADC.c ****     {
 424:.\Generated_Source\PSoC4/Sensor_ADC.c ****         do
 425:.\Generated_Source\PSoC4/Sensor_ADC.c ****         {
 426:.\Generated_Source\PSoC4/Sensor_ADC.c ****             status = Sensor_ADC_SAR_INTR_REG & Sensor_ADC_EOS_MASK;
 573              		.loc 1 426 0 discriminator 1
 574 0014 0B4B     		ldr	r3, .L38
 575 0016 1A68     		ldr	r2, [r3]
 576 0018 0123     		mov	r3, #1
 577 001a 1340     		and	r3, r2
 578 001c FB60     		str	r3, [r7, #12]
 427:.\Generated_Source\PSoC4/Sensor_ADC.c ****         }while((status == 0u) && ((retMode & Sensor_ADC_WAIT_FOR_RESULT) != 0u));
 579              		.loc 1 427 0 discriminator 1
 580 001e FB68     		ldr	r3, [r7, #12]
 581 0020 002B     		cmp	r3, #0
 582 0022 03D1     		bne	.L35
 583 0024 7A68     		ldr	r2, [r7, #4]
 584 0026 0223     		mov	r3, #2
 585 0028 1340     		and	r3, r2
 586 002a F3D1     		bne	.L36
 587              	.L35:
 428:.\Generated_Source\PSoC4/Sensor_ADC.c **** 
 429:.\Generated_Source\PSoC4/Sensor_ADC.c ****         if(status != 0u)
 588              		.loc 1 429 0
 589 002c FB68     		ldr	r3, [r7, #12]
 590 002e 002B     		cmp	r3, #0
ARM GAS  C:\Users\jsing\AppData\Local\Temp\ccIpowyF.s 			page 19


 591 0030 02D0     		beq	.L34
 430:.\Generated_Source\PSoC4/Sensor_ADC.c ****         {
 431:.\Generated_Source\PSoC4/Sensor_ADC.c ****             /* Clear EOS bit */
 432:.\Generated_Source\PSoC4/Sensor_ADC.c ****             Sensor_ADC_SAR_INTR_REG = Sensor_ADC_EOS_MASK;
 592              		.loc 1 432 0
 593 0032 044B     		ldr	r3, .L38
 594 0034 0122     		mov	r2, #1
 595 0036 1A60     		str	r2, [r3]
 596              	.L34:
 433:.\Generated_Source\PSoC4/Sensor_ADC.c ****         }
 434:.\Generated_Source\PSoC4/Sensor_ADC.c ****     }
 435:.\Generated_Source\PSoC4/Sensor_ADC.c **** 
 436:.\Generated_Source\PSoC4/Sensor_ADC.c ****     #if(Sensor_ADC_INJ_CHANNEL_ENABLED)
 437:.\Generated_Source\PSoC4/Sensor_ADC.c ****         if((retMode & (Sensor_ADC_RETURN_STATUS_INJ | Sensor_ADC_WAIT_FOR_RESULT_INJ)) != 0u)
 438:.\Generated_Source\PSoC4/Sensor_ADC.c ****         {
 439:.\Generated_Source\PSoC4/Sensor_ADC.c ****             do
 440:.\Generated_Source\PSoC4/Sensor_ADC.c ****             {
 441:.\Generated_Source\PSoC4/Sensor_ADC.c ****                 status |= Sensor_ADC_SAR_INTR_REG & Sensor_ADC_INJ_EOC_MASK;
 442:.\Generated_Source\PSoC4/Sensor_ADC.c ****             }while(((status & Sensor_ADC_INJ_EOC_MASK) == 0u) &&
 443:.\Generated_Source\PSoC4/Sensor_ADC.c ****                    ((retMode & Sensor_ADC_WAIT_FOR_RESULT_INJ) != 0u));
 444:.\Generated_Source\PSoC4/Sensor_ADC.c **** 
 445:.\Generated_Source\PSoC4/Sensor_ADC.c ****             if((status & Sensor_ADC_INJ_EOC_MASK) != 0u)
 446:.\Generated_Source\PSoC4/Sensor_ADC.c ****             {
 447:.\Generated_Source\PSoC4/Sensor_ADC.c ****                 /* Clear Injection EOS bit */
 448:.\Generated_Source\PSoC4/Sensor_ADC.c ****                 Sensor_ADC_SAR_INTR_REG = Sensor_ADC_INJ_EOC_MASK;
 449:.\Generated_Source\PSoC4/Sensor_ADC.c ****             }
 450:.\Generated_Source\PSoC4/Sensor_ADC.c ****         }
 451:.\Generated_Source\PSoC4/Sensor_ADC.c ****     #endif /* Sensor_ADC_INJ_CHANNEL_ENABLED */
 452:.\Generated_Source\PSoC4/Sensor_ADC.c **** 
 453:.\Generated_Source\PSoC4/Sensor_ADC.c ****     return (status);
 597              		.loc 1 453 0
 598 0038 FB68     		ldr	r3, [r7, #12]
 454:.\Generated_Source\PSoC4/Sensor_ADC.c **** }
 599              		.loc 1 454 0
 600 003a 181C     		mov	r0, r3
 601 003c BD46     		mov	sp, r7
 602 003e 04B0     		add	sp, sp, #16
 603              		@ sp needed
 604 0040 80BD     		pop	{r7, pc}
 605              	.L39:
 606 0042 C046     		.align	2
 607              	.L38:
 608 0044 10023A40 		.word	1077543440
 609              		.cfi_endproc
 610              	.LFE8:
 611              		.size	Sensor_ADC_IsEndConversion, .-Sensor_ADC_IsEndConversion
 612              		.section	.text.Sensor_ADC_GetResult16,"ax",%progbits
 613              		.align	2
 614              		.global	Sensor_ADC_GetResult16
 615              		.code	16
 616              		.thumb_func
 617              		.type	Sensor_ADC_GetResult16, %function
 618              	Sensor_ADC_GetResult16:
 619              	.LFB9:
 455:.\Generated_Source\PSoC4/Sensor_ADC.c **** 
 456:.\Generated_Source\PSoC4/Sensor_ADC.c **** 
 457:.\Generated_Source\PSoC4/Sensor_ADC.c **** /*******************************************************************************
ARM GAS  C:\Users\jsing\AppData\Local\Temp\ccIpowyF.s 			page 20


 458:.\Generated_Source\PSoC4/Sensor_ADC.c **** * Function Name: Sensor_ADC_GetResult16
 459:.\Generated_Source\PSoC4/Sensor_ADC.c **** ********************************************************************************
 460:.\Generated_Source\PSoC4/Sensor_ADC.c **** *
 461:.\Generated_Source\PSoC4/Sensor_ADC.c **** * Summary:
 462:.\Generated_Source\PSoC4/Sensor_ADC.c **** *  Gets the data available in the SAR DATA register.
 463:.\Generated_Source\PSoC4/Sensor_ADC.c **** *
 464:.\Generated_Source\PSoC4/Sensor_ADC.c **** * Parameters:
 465:.\Generated_Source\PSoC4/Sensor_ADC.c **** *  chan: The ADC channel in which to return the result. The first channel
 466:.\Generated_Source\PSoC4/Sensor_ADC.c **** *  is 0 and the injection channel if enabled is the number of valid channels.
 467:.\Generated_Source\PSoC4/Sensor_ADC.c **** *
 468:.\Generated_Source\PSoC4/Sensor_ADC.c **** * Return:
 469:.\Generated_Source\PSoC4/Sensor_ADC.c **** *  Returns converted data as a signed 16-bit integer
 470:.\Generated_Source\PSoC4/Sensor_ADC.c **** *
 471:.\Generated_Source\PSoC4/Sensor_ADC.c **** *******************************************************************************/
 472:.\Generated_Source\PSoC4/Sensor_ADC.c **** int16 Sensor_ADC_GetResult16(uint32 chan)
 473:.\Generated_Source\PSoC4/Sensor_ADC.c **** {
 620              		.loc 1 473 0
 621              		.cfi_startproc
 622 0000 80B5     		push	{r7, lr}
 623              		.cfi_def_cfa_offset 8
 624              		.cfi_offset 7, -8
 625              		.cfi_offset 14, -4
 626 0002 84B0     		sub	sp, sp, #16
 627              		.cfi_def_cfa_offset 24
 628 0004 00AF     		add	r7, sp, #0
 629              		.cfi_def_cfa_register 7
 630 0006 7860     		str	r0, [r7, #4]
 474:.\Generated_Source\PSoC4/Sensor_ADC.c ****     uint32 result;
 475:.\Generated_Source\PSoC4/Sensor_ADC.c **** 
 476:.\Generated_Source\PSoC4/Sensor_ADC.c ****     /* Halt CPU in debug mode if channel is out of valid range */
 477:.\Generated_Source\PSoC4/Sensor_ADC.c ****     CYASSERT(chan < Sensor_ADC_TOTAL_CHANNELS_NUM);
 631              		.loc 1 477 0
 632 0008 7B68     		ldr	r3, [r7, #4]
 633 000a 022B     		cmp	r3, #2
 634 000c 02D9     		bls	.L41
 635              		.loc 1 477 0 is_stmt 0 discriminator 1
 636 000e 0020     		mov	r0, #0
 637 0010 FFF7FEFF 		bl	CyHalt
 638              	.L41:
 478:.\Generated_Source\PSoC4/Sensor_ADC.c **** 
 479:.\Generated_Source\PSoC4/Sensor_ADC.c ****     if(chan < Sensor_ADC_SEQUENCED_CHANNELS_NUM)
 639              		.loc 1 479 0 is_stmt 1
 640 0014 7B68     		ldr	r3, [r7, #4]
 641 0016 022B     		cmp	r3, #2
 642 0018 08D8     		bhi	.L42
 480:.\Generated_Source\PSoC4/Sensor_ADC.c ****     {
 481:.\Generated_Source\PSoC4/Sensor_ADC.c ****         result = CY_GET_REG32((reg32 *)(Sensor_ADC_SAR_CHAN_RESULT_IND + (uint32)(chan << 2u))) &
 643              		.loc 1 481 0
 644 001a 7B68     		ldr	r3, [r7, #4]
 645 001c 9B00     		lsl	r3, r3, #2
 646 001e 084A     		ldr	r2, .L45
 647 0020 9B18     		add	r3, r3, r2
 648 0022 1B68     		ldr	r3, [r3]
 649 0024 1B04     		lsl	r3, r3, #16
 650 0026 1B0C     		lsr	r3, r3, #16
 651 0028 FB60     		str	r3, [r7, #12]
 652 002a 01E0     		b	.L43
ARM GAS  C:\Users\jsing\AppData\Local\Temp\ccIpowyF.s 			page 21


 653              	.L42:
 482:.\Generated_Source\PSoC4/Sensor_ADC.c ****                 Sensor_ADC_RESULT_MASK;
 483:.\Generated_Source\PSoC4/Sensor_ADC.c ****     }
 484:.\Generated_Source\PSoC4/Sensor_ADC.c ****     else
 485:.\Generated_Source\PSoC4/Sensor_ADC.c ****     {
 486:.\Generated_Source\PSoC4/Sensor_ADC.c ****         #if(Sensor_ADC_INJ_CHANNEL_ENABLED)
 487:.\Generated_Source\PSoC4/Sensor_ADC.c ****             result = Sensor_ADC_SAR_INJ_RESULT_REG & Sensor_ADC_RESULT_MASK;
 488:.\Generated_Source\PSoC4/Sensor_ADC.c ****         #else
 489:.\Generated_Source\PSoC4/Sensor_ADC.c ****             result = 0u;
 654              		.loc 1 489 0
 655 002c 0023     		mov	r3, #0
 656 002e FB60     		str	r3, [r7, #12]
 657              	.L43:
 490:.\Generated_Source\PSoC4/Sensor_ADC.c ****         #endif /* Sensor_ADC_INJ_CHANNEL_ENABLED */
 491:.\Generated_Source\PSoC4/Sensor_ADC.c ****     }
 492:.\Generated_Source\PSoC4/Sensor_ADC.c **** 
 493:.\Generated_Source\PSoC4/Sensor_ADC.c ****     return ( (int16)result );
 658              		.loc 1 493 0
 659 0030 FB68     		ldr	r3, [r7, #12]
 660 0032 9BB2     		uxth	r3, r3
 661 0034 1BB2     		sxth	r3, r3
 494:.\Generated_Source\PSoC4/Sensor_ADC.c **** }
 662              		.loc 1 494 0
 663 0036 181C     		mov	r0, r3
 664 0038 BD46     		mov	sp, r7
 665 003a 04B0     		add	sp, sp, #16
 666              		@ sp needed
 667 003c 80BD     		pop	{r7, pc}
 668              	.L46:
 669 003e C046     		.align	2
 670              	.L45:
 671 0040 80013A40 		.word	1077543296
 672              		.cfi_endproc
 673              	.LFE9:
 674              		.size	Sensor_ADC_GetResult16, .-Sensor_ADC_GetResult16
 675              		.section	.text.Sensor_ADC_SetChanMask,"ax",%progbits
 676              		.align	2
 677              		.global	Sensor_ADC_SetChanMask
 678              		.code	16
 679              		.thumb_func
 680              		.type	Sensor_ADC_SetChanMask, %function
 681              	Sensor_ADC_SetChanMask:
 682              	.LFB10:
 495:.\Generated_Source\PSoC4/Sensor_ADC.c **** 
 496:.\Generated_Source\PSoC4/Sensor_ADC.c **** 
 497:.\Generated_Source\PSoC4/Sensor_ADC.c **** /*******************************************************************************
 498:.\Generated_Source\PSoC4/Sensor_ADC.c **** * Function Name: Sensor_ADC_SetChanMask
 499:.\Generated_Source\PSoC4/Sensor_ADC.c **** ********************************************************************************
 500:.\Generated_Source\PSoC4/Sensor_ADC.c **** *
 501:.\Generated_Source\PSoC4/Sensor_ADC.c **** * Summary:
 502:.\Generated_Source\PSoC4/Sensor_ADC.c **** *  Sets the channel enable mask.
 503:.\Generated_Source\PSoC4/Sensor_ADC.c **** *
 504:.\Generated_Source\PSoC4/Sensor_ADC.c **** * Parameters:
 505:.\Generated_Source\PSoC4/Sensor_ADC.c **** *  mask: Sets which channels that will be
 506:.\Generated_Source\PSoC4/Sensor_ADC.c **** *  scanned. Setting bits for channels that do not exist will have no
 507:.\Generated_Source\PSoC4/Sensor_ADC.c **** *  effect. For example, if only 6 channels were enabled, setting a
 508:.\Generated_Source\PSoC4/Sensor_ADC.c **** *  mask of 0x0103 would only enable the last two channels (0 and 1).
ARM GAS  C:\Users\jsing\AppData\Local\Temp\ccIpowyF.s 			page 22


 509:.\Generated_Source\PSoC4/Sensor_ADC.c **** *  This API will not enable the injection channel.
 510:.\Generated_Source\PSoC4/Sensor_ADC.c **** *  Examples: If the component is setup to sequence through 8
 511:.\Generated_Source\PSoC4/Sensor_ADC.c **** *  channels, a mask of 0x000F would enable channels 0, 1, 2, and 3.
 512:.\Generated_Source\PSoC4/Sensor_ADC.c **** *
 513:.\Generated_Source\PSoC4/Sensor_ADC.c **** * Return:
 514:.\Generated_Source\PSoC4/Sensor_ADC.c **** *  None.
 515:.\Generated_Source\PSoC4/Sensor_ADC.c **** *
 516:.\Generated_Source\PSoC4/Sensor_ADC.c **** *******************************************************************************/
 517:.\Generated_Source\PSoC4/Sensor_ADC.c **** void Sensor_ADC_SetChanMask(uint32 mask)
 518:.\Generated_Source\PSoC4/Sensor_ADC.c **** {
 683              		.loc 1 518 0
 684              		.cfi_startproc
 685 0000 80B5     		push	{r7, lr}
 686              		.cfi_def_cfa_offset 8
 687              		.cfi_offset 7, -8
 688              		.cfi_offset 14, -4
 689 0002 82B0     		sub	sp, sp, #8
 690              		.cfi_def_cfa_offset 16
 691 0004 00AF     		add	r7, sp, #0
 692              		.cfi_def_cfa_register 7
 693 0006 7860     		str	r0, [r7, #4]
 519:.\Generated_Source\PSoC4/Sensor_ADC.c ****     Sensor_ADC_SAR_CHAN_EN_REG = mask & Sensor_ADC_MAX_CHANNELS_EN_MASK;
 694              		.loc 1 519 0
 695 0008 034B     		ldr	r3, .L48
 696 000a 7968     		ldr	r1, [r7, #4]
 697 000c 0722     		mov	r2, #7
 698 000e 0A40     		and	r2, r1
 699 0010 1A60     		str	r2, [r3]
 520:.\Generated_Source\PSoC4/Sensor_ADC.c **** }
 700              		.loc 1 520 0
 701 0012 BD46     		mov	sp, r7
 702 0014 02B0     		add	sp, sp, #8
 703              		@ sp needed
 704 0016 80BD     		pop	{r7, pc}
 705              	.L49:
 706              		.align	2
 707              	.L48:
 708 0018 20003A40 		.word	1077542944
 709              		.cfi_endproc
 710              	.LFE10:
 711              		.size	Sensor_ADC_SetChanMask, .-Sensor_ADC_SetChanMask
 712              		.section	.text.Sensor_ADC_SetLowLimit,"ax",%progbits
 713              		.align	2
 714              		.global	Sensor_ADC_SetLowLimit
 715              		.code	16
 716              		.thumb_func
 717              		.type	Sensor_ADC_SetLowLimit, %function
 718              	Sensor_ADC_SetLowLimit:
 719              	.LFB11:
 521:.\Generated_Source\PSoC4/Sensor_ADC.c **** 
 522:.\Generated_Source\PSoC4/Sensor_ADC.c **** #if(Sensor_ADC_INJ_CHANNEL_ENABLED)
 523:.\Generated_Source\PSoC4/Sensor_ADC.c **** 
 524:.\Generated_Source\PSoC4/Sensor_ADC.c **** 
 525:.\Generated_Source\PSoC4/Sensor_ADC.c ****     /*******************************************************************************
 526:.\Generated_Source\PSoC4/Sensor_ADC.c ****     * Function Name: Sensor_ADC_EnableInjection
 527:.\Generated_Source\PSoC4/Sensor_ADC.c ****     ********************************************************************************
 528:.\Generated_Source\PSoC4/Sensor_ADC.c ****     *
ARM GAS  C:\Users\jsing\AppData\Local\Temp\ccIpowyF.s 			page 23


 529:.\Generated_Source\PSoC4/Sensor_ADC.c ****     * Summary:
 530:.\Generated_Source\PSoC4/Sensor_ADC.c ****     *  Enables the injection channel for the next scan only.
 531:.\Generated_Source\PSoC4/Sensor_ADC.c ****     *
 532:.\Generated_Source\PSoC4/Sensor_ADC.c ****     * Parameters:
 533:.\Generated_Source\PSoC4/Sensor_ADC.c ****     *  None.
 534:.\Generated_Source\PSoC4/Sensor_ADC.c ****     *
 535:.\Generated_Source\PSoC4/Sensor_ADC.c ****     * Return:
 536:.\Generated_Source\PSoC4/Sensor_ADC.c ****     *  None.
 537:.\Generated_Source\PSoC4/Sensor_ADC.c ****     *
 538:.\Generated_Source\PSoC4/Sensor_ADC.c ****     *******************************************************************************/
 539:.\Generated_Source\PSoC4/Sensor_ADC.c ****     void Sensor_ADC_EnableInjection(void)
 540:.\Generated_Source\PSoC4/Sensor_ADC.c ****     {
 541:.\Generated_Source\PSoC4/Sensor_ADC.c ****         Sensor_ADC_SAR_INJ_CHAN_CONFIG_REG |= Sensor_ADC_INJ_CHAN_EN;
 542:.\Generated_Source\PSoC4/Sensor_ADC.c ****     }
 543:.\Generated_Source\PSoC4/Sensor_ADC.c **** 
 544:.\Generated_Source\PSoC4/Sensor_ADC.c **** #endif /* Sensor_ADC_INJ_CHANNEL_ENABLED */
 545:.\Generated_Source\PSoC4/Sensor_ADC.c **** 
 546:.\Generated_Source\PSoC4/Sensor_ADC.c **** 
 547:.\Generated_Source\PSoC4/Sensor_ADC.c **** /*******************************************************************************
 548:.\Generated_Source\PSoC4/Sensor_ADC.c **** * Function Name: Sensor_ADC_SetLowLimit
 549:.\Generated_Source\PSoC4/Sensor_ADC.c **** ********************************************************************************
 550:.\Generated_Source\PSoC4/Sensor_ADC.c **** *
 551:.\Generated_Source\PSoC4/Sensor_ADC.c **** * Summary:
 552:.\Generated_Source\PSoC4/Sensor_ADC.c **** *  Sets the low limit parameter for a limit condition.
 553:.\Generated_Source\PSoC4/Sensor_ADC.c **** *
 554:.\Generated_Source\PSoC4/Sensor_ADC.c **** * Parameters:
 555:.\Generated_Source\PSoC4/Sensor_ADC.c **** *  lowLimit: The low limit for a limit condition.
 556:.\Generated_Source\PSoC4/Sensor_ADC.c **** *
 557:.\Generated_Source\PSoC4/Sensor_ADC.c **** * Return:
 558:.\Generated_Source\PSoC4/Sensor_ADC.c **** *  None.
 559:.\Generated_Source\PSoC4/Sensor_ADC.c **** *
 560:.\Generated_Source\PSoC4/Sensor_ADC.c **** *******************************************************************************/
 561:.\Generated_Source\PSoC4/Sensor_ADC.c **** void Sensor_ADC_SetLowLimit(uint32 lowLimit)
 562:.\Generated_Source\PSoC4/Sensor_ADC.c **** {
 720              		.loc 1 562 0
 721              		.cfi_startproc
 722 0000 80B5     		push	{r7, lr}
 723              		.cfi_def_cfa_offset 8
 724              		.cfi_offset 7, -8
 725              		.cfi_offset 14, -4
 726 0002 82B0     		sub	sp, sp, #8
 727              		.cfi_def_cfa_offset 16
 728 0004 00AF     		add	r7, sp, #0
 729              		.cfi_def_cfa_register 7
 730 0006 7860     		str	r0, [r7, #4]
 563:.\Generated_Source\PSoC4/Sensor_ADC.c ****     Sensor_ADC_SAR_RANGE_THRES_REG &= (uint32)(~Sensor_ADC_RANGE_LOW_MASK);
 731              		.loc 1 563 0
 732 0008 084B     		ldr	r3, .L51
 733 000a 084A     		ldr	r2, .L51
 734 000c 1268     		ldr	r2, [r2]
 735 000e 120C     		lsr	r2, r2, #16
 736 0010 1204     		lsl	r2, r2, #16
 737 0012 1A60     		str	r2, [r3]
 564:.\Generated_Source\PSoC4/Sensor_ADC.c ****     Sensor_ADC_SAR_RANGE_THRES_REG |= lowLimit & Sensor_ADC_RANGE_LOW_MASK;
 738              		.loc 1 564 0
 739 0014 054B     		ldr	r3, .L51
 740 0016 054A     		ldr	r2, .L51
ARM GAS  C:\Users\jsing\AppData\Local\Temp\ccIpowyF.s 			page 24


 741 0018 1168     		ldr	r1, [r2]
 742 001a 7A68     		ldr	r2, [r7, #4]
 743 001c 1204     		lsl	r2, r2, #16
 744 001e 120C     		lsr	r2, r2, #16
 745 0020 0A43     		orr	r2, r1
 746 0022 1A60     		str	r2, [r3]
 565:.\Generated_Source\PSoC4/Sensor_ADC.c **** }
 747              		.loc 1 565 0
 748 0024 BD46     		mov	sp, r7
 749 0026 02B0     		add	sp, sp, #8
 750              		@ sp needed
 751 0028 80BD     		pop	{r7, pc}
 752              	.L52:
 753 002a C046     		.align	2
 754              	.L51:
 755 002c 18003A40 		.word	1077542936
 756              		.cfi_endproc
 757              	.LFE11:
 758              		.size	Sensor_ADC_SetLowLimit, .-Sensor_ADC_SetLowLimit
 759              		.section	.text.Sensor_ADC_SetHighLimit,"ax",%progbits
 760              		.align	2
 761              		.global	Sensor_ADC_SetHighLimit
 762              		.code	16
 763              		.thumb_func
 764              		.type	Sensor_ADC_SetHighLimit, %function
 765              	Sensor_ADC_SetHighLimit:
 766              	.LFB12:
 566:.\Generated_Source\PSoC4/Sensor_ADC.c **** 
 567:.\Generated_Source\PSoC4/Sensor_ADC.c **** 
 568:.\Generated_Source\PSoC4/Sensor_ADC.c **** /*******************************************************************************
 569:.\Generated_Source\PSoC4/Sensor_ADC.c **** * Function Name: Sensor_ADC_SetHighLimit
 570:.\Generated_Source\PSoC4/Sensor_ADC.c **** ********************************************************************************
 571:.\Generated_Source\PSoC4/Sensor_ADC.c **** *
 572:.\Generated_Source\PSoC4/Sensor_ADC.c **** * Summary:
 573:.\Generated_Source\PSoC4/Sensor_ADC.c **** *  Sets the low limit parameter for a limit condition.
 574:.\Generated_Source\PSoC4/Sensor_ADC.c **** *
 575:.\Generated_Source\PSoC4/Sensor_ADC.c **** * Parameters:
 576:.\Generated_Source\PSoC4/Sensor_ADC.c **** *  highLimit: The high limit for a limit condition.
 577:.\Generated_Source\PSoC4/Sensor_ADC.c **** *
 578:.\Generated_Source\PSoC4/Sensor_ADC.c **** * Return:
 579:.\Generated_Source\PSoC4/Sensor_ADC.c **** *  None.
 580:.\Generated_Source\PSoC4/Sensor_ADC.c **** *
 581:.\Generated_Source\PSoC4/Sensor_ADC.c **** *******************************************************************************/
 582:.\Generated_Source\PSoC4/Sensor_ADC.c **** void Sensor_ADC_SetHighLimit(uint32 highLimit)
 583:.\Generated_Source\PSoC4/Sensor_ADC.c **** {
 767              		.loc 1 583 0
 768              		.cfi_startproc
 769 0000 80B5     		push	{r7, lr}
 770              		.cfi_def_cfa_offset 8
 771              		.cfi_offset 7, -8
 772              		.cfi_offset 14, -4
 773 0002 82B0     		sub	sp, sp, #8
 774              		.cfi_def_cfa_offset 16
 775 0004 00AF     		add	r7, sp, #0
 776              		.cfi_def_cfa_register 7
 777 0006 7860     		str	r0, [r7, #4]
 584:.\Generated_Source\PSoC4/Sensor_ADC.c ****     Sensor_ADC_SAR_RANGE_THRES_REG &= (uint32)(~Sensor_ADC_RANGE_HIGH_MASK);
ARM GAS  C:\Users\jsing\AppData\Local\Temp\ccIpowyF.s 			page 25


 778              		.loc 1 584 0
 779 0008 074B     		ldr	r3, .L54
 780 000a 074A     		ldr	r2, .L54
 781 000c 1268     		ldr	r2, [r2]
 782 000e 1204     		lsl	r2, r2, #16
 783 0010 120C     		lsr	r2, r2, #16
 784 0012 1A60     		str	r2, [r3]
 585:.\Generated_Source\PSoC4/Sensor_ADC.c ****     Sensor_ADC_SAR_RANGE_THRES_REG |= (uint32)(highLimit << Sensor_ADC_RANGE_HIGH_OFFSET);
 785              		.loc 1 585 0
 786 0014 044B     		ldr	r3, .L54
 787 0016 044A     		ldr	r2, .L54
 788 0018 1168     		ldr	r1, [r2]
 789 001a 7A68     		ldr	r2, [r7, #4]
 790 001c 1204     		lsl	r2, r2, #16
 791 001e 0A43     		orr	r2, r1
 792 0020 1A60     		str	r2, [r3]
 586:.\Generated_Source\PSoC4/Sensor_ADC.c **** }
 793              		.loc 1 586 0
 794 0022 BD46     		mov	sp, r7
 795 0024 02B0     		add	sp, sp, #8
 796              		@ sp needed
 797 0026 80BD     		pop	{r7, pc}
 798              	.L55:
 799              		.align	2
 800              	.L54:
 801 0028 18003A40 		.word	1077542936
 802              		.cfi_endproc
 803              	.LFE12:
 804              		.size	Sensor_ADC_SetHighLimit, .-Sensor_ADC_SetHighLimit
 805              		.section	.text.Sensor_ADC_SetLimitMask,"ax",%progbits
 806              		.align	2
 807              		.global	Sensor_ADC_SetLimitMask
 808              		.code	16
 809              		.thumb_func
 810              		.type	Sensor_ADC_SetLimitMask, %function
 811              	Sensor_ADC_SetLimitMask:
 812              	.LFB13:
 587:.\Generated_Source\PSoC4/Sensor_ADC.c **** 
 588:.\Generated_Source\PSoC4/Sensor_ADC.c **** 
 589:.\Generated_Source\PSoC4/Sensor_ADC.c **** /*******************************************************************************
 590:.\Generated_Source\PSoC4/Sensor_ADC.c **** * Function Name: Sensor_ADC_SetLimitMask
 591:.\Generated_Source\PSoC4/Sensor_ADC.c **** ********************************************************************************
 592:.\Generated_Source\PSoC4/Sensor_ADC.c **** *
 593:.\Generated_Source\PSoC4/Sensor_ADC.c **** * Summary:
 594:.\Generated_Source\PSoC4/Sensor_ADC.c **** *  Sets the channel limit condition mask.
 595:.\Generated_Source\PSoC4/Sensor_ADC.c **** *
 596:.\Generated_Source\PSoC4/Sensor_ADC.c **** * Parameters:
 597:.\Generated_Source\PSoC4/Sensor_ADC.c **** *  mask: Sets which channels that may cause a
 598:.\Generated_Source\PSoC4/Sensor_ADC.c **** *  limit condition interrupt. Setting bits for channels that do not exist
 599:.\Generated_Source\PSoC4/Sensor_ADC.c **** *  will have no effect. For example, if only 6 channels were enabled,
 600:.\Generated_Source\PSoC4/Sensor_ADC.c **** *  setting a mask of 0x0103 would only enable the last two channels (0 and 1).
 601:.\Generated_Source\PSoC4/Sensor_ADC.c **** *
 602:.\Generated_Source\PSoC4/Sensor_ADC.c **** * Return:
 603:.\Generated_Source\PSoC4/Sensor_ADC.c **** *  None.
 604:.\Generated_Source\PSoC4/Sensor_ADC.c **** *
 605:.\Generated_Source\PSoC4/Sensor_ADC.c **** *******************************************************************************/
 606:.\Generated_Source\PSoC4/Sensor_ADC.c **** void Sensor_ADC_SetLimitMask(uint32 mask)
ARM GAS  C:\Users\jsing\AppData\Local\Temp\ccIpowyF.s 			page 26


 607:.\Generated_Source\PSoC4/Sensor_ADC.c **** {
 813              		.loc 1 607 0
 814              		.cfi_startproc
 815 0000 80B5     		push	{r7, lr}
 816              		.cfi_def_cfa_offset 8
 817              		.cfi_offset 7, -8
 818              		.cfi_offset 14, -4
 819 0002 82B0     		sub	sp, sp, #8
 820              		.cfi_def_cfa_offset 16
 821 0004 00AF     		add	r7, sp, #0
 822              		.cfi_def_cfa_register 7
 823 0006 7860     		str	r0, [r7, #4]
 608:.\Generated_Source\PSoC4/Sensor_ADC.c ****     Sensor_ADC_SAR_RANGE_INTR_MASK_REG = mask & Sensor_ADC_MAX_CHANNELS_EN_MASK;
 824              		.loc 1 608 0
 825 0008 034B     		ldr	r3, .L57
 826 000a 7968     		ldr	r1, [r7, #4]
 827 000c 0722     		mov	r2, #7
 828 000e 0A40     		and	r2, r1
 829 0010 1A60     		str	r2, [r3]
 609:.\Generated_Source\PSoC4/Sensor_ADC.c **** }
 830              		.loc 1 609 0
 831 0012 BD46     		mov	sp, r7
 832 0014 02B0     		add	sp, sp, #8
 833              		@ sp needed
 834 0016 80BD     		pop	{r7, pc}
 835              	.L58:
 836              		.align	2
 837              	.L57:
 838 0018 38023A40 		.word	1077543480
 839              		.cfi_endproc
 840              	.LFE13:
 841              		.size	Sensor_ADC_SetLimitMask, .-Sensor_ADC_SetLimitMask
 842              		.section	.text.Sensor_ADC_SetSatMask,"ax",%progbits
 843              		.align	2
 844              		.global	Sensor_ADC_SetSatMask
 845              		.code	16
 846              		.thumb_func
 847              		.type	Sensor_ADC_SetSatMask, %function
 848              	Sensor_ADC_SetSatMask:
 849              	.LFB14:
 610:.\Generated_Source\PSoC4/Sensor_ADC.c **** 
 611:.\Generated_Source\PSoC4/Sensor_ADC.c **** 
 612:.\Generated_Source\PSoC4/Sensor_ADC.c **** /*******************************************************************************
 613:.\Generated_Source\PSoC4/Sensor_ADC.c **** * Function Name: Sensor_ADC_SetSatMask
 614:.\Generated_Source\PSoC4/Sensor_ADC.c **** ********************************************************************************
 615:.\Generated_Source\PSoC4/Sensor_ADC.c **** *
 616:.\Generated_Source\PSoC4/Sensor_ADC.c **** * Summary:
 617:.\Generated_Source\PSoC4/Sensor_ADC.c **** *  Sets the channel saturation event mask.
 618:.\Generated_Source\PSoC4/Sensor_ADC.c **** *
 619:.\Generated_Source\PSoC4/Sensor_ADC.c **** * Parameters:
 620:.\Generated_Source\PSoC4/Sensor_ADC.c **** *  mask: Sets which channels that may cause a
 621:.\Generated_Source\PSoC4/Sensor_ADC.c **** *  saturation event interrupt. Setting bits for channels that do not exist
 622:.\Generated_Source\PSoC4/Sensor_ADC.c **** *  will have no effect. For example, if only 8 channels were enabled,
 623:.\Generated_Source\PSoC4/Sensor_ADC.c **** *  setting a mask of 0x01C0 would only enable two channels (6 and 7).
 624:.\Generated_Source\PSoC4/Sensor_ADC.c **** *
 625:.\Generated_Source\PSoC4/Sensor_ADC.c **** * Return:
 626:.\Generated_Source\PSoC4/Sensor_ADC.c **** *  None.
ARM GAS  C:\Users\jsing\AppData\Local\Temp\ccIpowyF.s 			page 27


 627:.\Generated_Source\PSoC4/Sensor_ADC.c **** *
 628:.\Generated_Source\PSoC4/Sensor_ADC.c **** *******************************************************************************/
 629:.\Generated_Source\PSoC4/Sensor_ADC.c **** void Sensor_ADC_SetSatMask(uint32 mask)
 630:.\Generated_Source\PSoC4/Sensor_ADC.c **** {
 850              		.loc 1 630 0
 851              		.cfi_startproc
 852 0000 80B5     		push	{r7, lr}
 853              		.cfi_def_cfa_offset 8
 854              		.cfi_offset 7, -8
 855              		.cfi_offset 14, -4
 856 0002 82B0     		sub	sp, sp, #8
 857              		.cfi_def_cfa_offset 16
 858 0004 00AF     		add	r7, sp, #0
 859              		.cfi_def_cfa_register 7
 860 0006 7860     		str	r0, [r7, #4]
 631:.\Generated_Source\PSoC4/Sensor_ADC.c ****     Sensor_ADC_SAR_SATURATE_INTR_MASK_REG = mask & Sensor_ADC_MAX_CHANNELS_EN_MASK;
 861              		.loc 1 631 0
 862 0008 034B     		ldr	r3, .L60
 863 000a 7968     		ldr	r1, [r7, #4]
 864 000c 0722     		mov	r2, #7
 865 000e 0A40     		and	r2, r1
 866 0010 1A60     		str	r2, [r3]
 632:.\Generated_Source\PSoC4/Sensor_ADC.c **** }
 867              		.loc 1 632 0
 868 0012 BD46     		mov	sp, r7
 869 0014 02B0     		add	sp, sp, #8
 870              		@ sp needed
 871 0016 80BD     		pop	{r7, pc}
 872              	.L61:
 873              		.align	2
 874              	.L60:
 875 0018 28023A40 		.word	1077543464
 876              		.cfi_endproc
 877              	.LFE14:
 878              		.size	Sensor_ADC_SetSatMask, .-Sensor_ADC_SetSatMask
 879              		.section	.text.Sensor_ADC_SetOffset,"ax",%progbits
 880              		.align	2
 881              		.global	Sensor_ADC_SetOffset
 882              		.code	16
 883              		.thumb_func
 884              		.type	Sensor_ADC_SetOffset, %function
 885              	Sensor_ADC_SetOffset:
 886              	.LFB15:
 633:.\Generated_Source\PSoC4/Sensor_ADC.c **** 
 634:.\Generated_Source\PSoC4/Sensor_ADC.c **** 
 635:.\Generated_Source\PSoC4/Sensor_ADC.c **** /*******************************************************************************
 636:.\Generated_Source\PSoC4/Sensor_ADC.c **** * Function Name: Sensor_ADC_SetOffset
 637:.\Generated_Source\PSoC4/Sensor_ADC.c **** ********************************************************************************
 638:.\Generated_Source\PSoC4/Sensor_ADC.c **** *
 639:.\Generated_Source\PSoC4/Sensor_ADC.c **** * Summary:
 640:.\Generated_Source\PSoC4/Sensor_ADC.c **** *   Description: Sets the ADC offset which is used by the functions
 641:.\Generated_Source\PSoC4/Sensor_ADC.c **** *   ADC_CountsTo_uVolts, ADC_CountsTo_mVolts and ADC_CountsTo_Volts
 642:.\Generated_Source\PSoC4/Sensor_ADC.c **** *   to substract the offset from the given reading
 643:.\Generated_Source\PSoC4/Sensor_ADC.c **** *   before calculating the voltage conversion.
 644:.\Generated_Source\PSoC4/Sensor_ADC.c **** *
 645:.\Generated_Source\PSoC4/Sensor_ADC.c **** * Parameters:
 646:.\Generated_Source\PSoC4/Sensor_ADC.c **** *  chan: ADC channel number.
ARM GAS  C:\Users\jsing\AppData\Local\Temp\ccIpowyF.s 			page 28


 647:.\Generated_Source\PSoC4/Sensor_ADC.c **** *  offset: This value is a measured value when the
 648:.\Generated_Source\PSoC4/Sensor_ADC.c **** *          inputs are shorted or connected to the same input voltage.
 649:.\Generated_Source\PSoC4/Sensor_ADC.c **** *
 650:.\Generated_Source\PSoC4/Sensor_ADC.c **** * Return:
 651:.\Generated_Source\PSoC4/Sensor_ADC.c **** *  None.
 652:.\Generated_Source\PSoC4/Sensor_ADC.c **** *
 653:.\Generated_Source\PSoC4/Sensor_ADC.c **** * Global variables:
 654:.\Generated_Source\PSoC4/Sensor_ADC.c **** *  Sensor_ADC_Offset:  Modified to set the user provided offset.
 655:.\Generated_Source\PSoC4/Sensor_ADC.c **** *
 656:.\Generated_Source\PSoC4/Sensor_ADC.c **** *******************************************************************************/
 657:.\Generated_Source\PSoC4/Sensor_ADC.c **** void Sensor_ADC_SetOffset(uint32 chan, int16 offset)
 658:.\Generated_Source\PSoC4/Sensor_ADC.c **** {
 887              		.loc 1 658 0
 888              		.cfi_startproc
 889 0000 80B5     		push	{r7, lr}
 890              		.cfi_def_cfa_offset 8
 891              		.cfi_offset 7, -8
 892              		.cfi_offset 14, -4
 893 0002 82B0     		sub	sp, sp, #8
 894              		.cfi_def_cfa_offset 16
 895 0004 00AF     		add	r7, sp, #0
 896              		.cfi_def_cfa_register 7
 897 0006 7860     		str	r0, [r7, #4]
 898 0008 0A1C     		mov	r2, r1
 899 000a BB1C     		add	r3, r7, #2
 900 000c 1A80     		strh	r2, [r3]
 659:.\Generated_Source\PSoC4/Sensor_ADC.c ****     /* Halt CPU in debug mode if channel is out of valid range */
 660:.\Generated_Source\PSoC4/Sensor_ADC.c ****     CYASSERT(chan < Sensor_ADC_TOTAL_CHANNELS_NUM);
 901              		.loc 1 660 0
 902 000e 7B68     		ldr	r3, [r7, #4]
 903 0010 022B     		cmp	r3, #2
 904 0012 02D9     		bls	.L63
 905              		.loc 1 660 0 is_stmt 0 discriminator 1
 906 0014 0020     		mov	r0, #0
 907 0016 FFF7FEFF 		bl	CyHalt
 908              	.L63:
 661:.\Generated_Source\PSoC4/Sensor_ADC.c **** 
 662:.\Generated_Source\PSoC4/Sensor_ADC.c ****     Sensor_ADC_offset[chan] = offset;
 909              		.loc 1 662 0 is_stmt 1
 910 001a 044B     		ldr	r3, .L64
 911 001c 7A68     		ldr	r2, [r7, #4]
 912 001e 5200     		lsl	r2, r2, #1
 913 0020 B91C     		add	r1, r7, #2
 914 0022 0988     		ldrh	r1, [r1]
 915 0024 D152     		strh	r1, [r2, r3]
 663:.\Generated_Source\PSoC4/Sensor_ADC.c **** }
 916              		.loc 1 663 0
 917 0026 BD46     		mov	sp, r7
 918 0028 02B0     		add	sp, sp, #8
 919              		@ sp needed
 920 002a 80BD     		pop	{r7, pc}
 921              	.L65:
 922              		.align	2
 923              	.L64:
 924 002c 00000000 		.word	Sensor_ADC_offset
 925              		.cfi_endproc
 926              	.LFE15:
ARM GAS  C:\Users\jsing\AppData\Local\Temp\ccIpowyF.s 			page 29


 927              		.size	Sensor_ADC_SetOffset, .-Sensor_ADC_SetOffset
 928              		.section	.text.Sensor_ADC_SetGain,"ax",%progbits
 929              		.align	2
 930              		.global	Sensor_ADC_SetGain
 931              		.code	16
 932              		.thumb_func
 933              		.type	Sensor_ADC_SetGain, %function
 934              	Sensor_ADC_SetGain:
 935              	.LFB16:
 664:.\Generated_Source\PSoC4/Sensor_ADC.c **** 
 665:.\Generated_Source\PSoC4/Sensor_ADC.c **** 
 666:.\Generated_Source\PSoC4/Sensor_ADC.c **** /*******************************************************************************
 667:.\Generated_Source\PSoC4/Sensor_ADC.c **** * Function Name: Sensor_ADC_SetGain
 668:.\Generated_Source\PSoC4/Sensor_ADC.c **** ********************************************************************************
 669:.\Generated_Source\PSoC4/Sensor_ADC.c **** *
 670:.\Generated_Source\PSoC4/Sensor_ADC.c **** * Summary:
 671:.\Generated_Source\PSoC4/Sensor_ADC.c **** *  Description: Sets the ADC gain in counts per 10 volt for the voltage
 672:.\Generated_Source\PSoC4/Sensor_ADC.c **** *  conversion functions below. This value is set by default by the
 673:.\Generated_Source\PSoC4/Sensor_ADC.c **** *  reference and input range settings. It should only be used to further
 674:.\Generated_Source\PSoC4/Sensor_ADC.c **** *  calibrate the ADC with a known input or if an external reference is
 675:.\Generated_Source\PSoC4/Sensor_ADC.c **** *  used. Affects the ADC_CountsTo_uVolts, ADC_CountsTo_mVolts
 676:.\Generated_Source\PSoC4/Sensor_ADC.c **** *  and ADC_CountsTo_Volts functions by supplying the correct
 677:.\Generated_Source\PSoC4/Sensor_ADC.c **** *  conversion between ADC counts and voltage.
 678:.\Generated_Source\PSoC4/Sensor_ADC.c **** *
 679:.\Generated_Source\PSoC4/Sensor_ADC.c **** * Parameters:
 680:.\Generated_Source\PSoC4/Sensor_ADC.c **** *  chan: ADC channel number.
 681:.\Generated_Source\PSoC4/Sensor_ADC.c **** *  adcGain: ADC gain in counts per 10 volts.
 682:.\Generated_Source\PSoC4/Sensor_ADC.c **** *
 683:.\Generated_Source\PSoC4/Sensor_ADC.c **** * Return:
 684:.\Generated_Source\PSoC4/Sensor_ADC.c **** *  None.
 685:.\Generated_Source\PSoC4/Sensor_ADC.c **** *
 686:.\Generated_Source\PSoC4/Sensor_ADC.c **** * Global variables:
 687:.\Generated_Source\PSoC4/Sensor_ADC.c **** *  Sensor_ADC_CountsPer10Volt:  modified to set the ADC gain in counts
 688:.\Generated_Source\PSoC4/Sensor_ADC.c **** *   per 10 volt.
 689:.\Generated_Source\PSoC4/Sensor_ADC.c **** *
 690:.\Generated_Source\PSoC4/Sensor_ADC.c **** *******************************************************************************/
 691:.\Generated_Source\PSoC4/Sensor_ADC.c **** void Sensor_ADC_SetGain(uint32 chan, int32 adcGain)
 692:.\Generated_Source\PSoC4/Sensor_ADC.c **** {
 936              		.loc 1 692 0
 937              		.cfi_startproc
 938 0000 80B5     		push	{r7, lr}
 939              		.cfi_def_cfa_offset 8
 940              		.cfi_offset 7, -8
 941              		.cfi_offset 14, -4
 942 0002 82B0     		sub	sp, sp, #8
 943              		.cfi_def_cfa_offset 16
 944 0004 00AF     		add	r7, sp, #0
 945              		.cfi_def_cfa_register 7
 946 0006 7860     		str	r0, [r7, #4]
 947 0008 3960     		str	r1, [r7]
 693:.\Generated_Source\PSoC4/Sensor_ADC.c ****     /* Halt CPU in debug mode if channel is out of valid range */
 694:.\Generated_Source\PSoC4/Sensor_ADC.c ****     CYASSERT(chan < Sensor_ADC_TOTAL_CHANNELS_NUM);
 948              		.loc 1 694 0
 949 000a 7B68     		ldr	r3, [r7, #4]
 950 000c 022B     		cmp	r3, #2
 951 000e 02D9     		bls	.L67
 952              		.loc 1 694 0 is_stmt 0 discriminator 1
ARM GAS  C:\Users\jsing\AppData\Local\Temp\ccIpowyF.s 			page 30


 953 0010 0020     		mov	r0, #0
 954 0012 FFF7FEFF 		bl	CyHalt
 955              	.L67:
 695:.\Generated_Source\PSoC4/Sensor_ADC.c **** 
 696:.\Generated_Source\PSoC4/Sensor_ADC.c ****     Sensor_ADC_countsPer10Volt[chan] = adcGain;
 956              		.loc 1 696 0 is_stmt 1
 957 0016 044B     		ldr	r3, .L68
 958 0018 7A68     		ldr	r2, [r7, #4]
 959 001a 9200     		lsl	r2, r2, #2
 960 001c 3968     		ldr	r1, [r7]
 961 001e D150     		str	r1, [r2, r3]
 697:.\Generated_Source\PSoC4/Sensor_ADC.c **** }
 962              		.loc 1 697 0
 963 0020 BD46     		mov	sp, r7
 964 0022 02B0     		add	sp, sp, #8
 965              		@ sp needed
 966 0024 80BD     		pop	{r7, pc}
 967              	.L69:
 968 0026 C046     		.align	2
 969              	.L68:
 970 0028 00000000 		.word	Sensor_ADC_countsPer10Volt
 971              		.cfi_endproc
 972              	.LFE16:
 973              		.size	Sensor_ADC_SetGain, .-Sensor_ADC_SetGain
 974              		.section	.text.Sensor_ADC_CountsTo_mVolts,"ax",%progbits
 975              		.align	2
 976              		.global	Sensor_ADC_CountsTo_mVolts
 977              		.code	16
 978              		.thumb_func
 979              		.type	Sensor_ADC_CountsTo_mVolts, %function
 980              	Sensor_ADC_CountsTo_mVolts:
 981              	.LFB17:
 698:.\Generated_Source\PSoC4/Sensor_ADC.c **** 
 699:.\Generated_Source\PSoC4/Sensor_ADC.c **** 
 700:.\Generated_Source\PSoC4/Sensor_ADC.c **** #if(Sensor_ADC_DEFAULT_JUSTIFICATION_SEL == Sensor_ADC__RIGHT)
 701:.\Generated_Source\PSoC4/Sensor_ADC.c **** 
 702:.\Generated_Source\PSoC4/Sensor_ADC.c **** 
 703:.\Generated_Source\PSoC4/Sensor_ADC.c ****     /*******************************************************************************
 704:.\Generated_Source\PSoC4/Sensor_ADC.c ****     * Function Name: Sensor_ADC_CountsTo_mVolts
 705:.\Generated_Source\PSoC4/Sensor_ADC.c ****     ********************************************************************************
 706:.\Generated_Source\PSoC4/Sensor_ADC.c ****     *
 707:.\Generated_Source\PSoC4/Sensor_ADC.c ****     * Summary:
 708:.\Generated_Source\PSoC4/Sensor_ADC.c ****     *  This function converts ADC counts to mVolts
 709:.\Generated_Source\PSoC4/Sensor_ADC.c ****     *  This function is not available when left data format justification selected.
 710:.\Generated_Source\PSoC4/Sensor_ADC.c ****     *
 711:.\Generated_Source\PSoC4/Sensor_ADC.c ****     * Parameters:
 712:.\Generated_Source\PSoC4/Sensor_ADC.c ****     *  chan: The ADC channel number.
 713:.\Generated_Source\PSoC4/Sensor_ADC.c ****     *  adcCounts: Result from the ADC conversion
 714:.\Generated_Source\PSoC4/Sensor_ADC.c ****     *
 715:.\Generated_Source\PSoC4/Sensor_ADC.c ****     * Return:
 716:.\Generated_Source\PSoC4/Sensor_ADC.c ****     *  Results in mVolts
 717:.\Generated_Source\PSoC4/Sensor_ADC.c ****     *
 718:.\Generated_Source\PSoC4/Sensor_ADC.c ****     * Global variables:
 719:.\Generated_Source\PSoC4/Sensor_ADC.c ****     *  Sensor_ADC_countsPer10Volt:  used to convert ADC counts to mVolts.
 720:.\Generated_Source\PSoC4/Sensor_ADC.c ****     *  Sensor_ADC_Offset:  Used as the offset while converting ADC counts
 721:.\Generated_Source\PSoC4/Sensor_ADC.c ****     *   to mVolts.
 722:.\Generated_Source\PSoC4/Sensor_ADC.c ****     *
ARM GAS  C:\Users\jsing\AppData\Local\Temp\ccIpowyF.s 			page 31


 723:.\Generated_Source\PSoC4/Sensor_ADC.c ****     *******************************************************************************/
 724:.\Generated_Source\PSoC4/Sensor_ADC.c ****     int16 Sensor_ADC_CountsTo_mVolts(uint32 chan, int16 adcCounts)
 725:.\Generated_Source\PSoC4/Sensor_ADC.c ****     {
 982              		.loc 1 725 0
 983              		.cfi_startproc
 984 0000 80B5     		push	{r7, lr}
 985              		.cfi_def_cfa_offset 8
 986              		.cfi_offset 7, -8
 987              		.cfi_offset 14, -4
 988 0002 84B0     		sub	sp, sp, #16
 989              		.cfi_def_cfa_offset 24
 990 0004 00AF     		add	r7, sp, #0
 991              		.cfi_def_cfa_register 7
 992 0006 7860     		str	r0, [r7, #4]
 993 0008 0A1C     		mov	r2, r1
 994 000a BB1C     		add	r3, r7, #2
 995 000c 1A80     		strh	r2, [r3]
 726:.\Generated_Source\PSoC4/Sensor_ADC.c ****         int16 mVolts;
 727:.\Generated_Source\PSoC4/Sensor_ADC.c **** 
 728:.\Generated_Source\PSoC4/Sensor_ADC.c ****         /* Halt CPU in debug mode if channel is out of valid range */
 729:.\Generated_Source\PSoC4/Sensor_ADC.c ****         CYASSERT(chan < Sensor_ADC_TOTAL_CHANNELS_NUM);
 996              		.loc 1 729 0
 997 000e 7B68     		ldr	r3, [r7, #4]
 998 0010 022B     		cmp	r3, #2
 999 0012 02D9     		bls	.L71
 1000              		.loc 1 729 0 is_stmt 0 discriminator 1
 1001 0014 0020     		mov	r0, #0
 1002 0016 FFF7FEFF 		bl	CyHalt
 1003              	.L71:
 730:.\Generated_Source\PSoC4/Sensor_ADC.c **** 
 731:.\Generated_Source\PSoC4/Sensor_ADC.c ****         /* Divide the adcCount when accumulate averaging mode selected */
 732:.\Generated_Source\PSoC4/Sensor_ADC.c ****         #if(Sensor_ADC_DEFAULT_AVG_MODE == Sensor_ADC__ACCUMULATE)
 733:.\Generated_Source\PSoC4/Sensor_ADC.c ****             if((Sensor_ADC_channelsConfig[chan] & Sensor_ADC_AVERAGING_EN) != 0u)
 1004              		.loc 1 733 0 is_stmt 1
 1005 001a 274B     		ldr	r3, .L79
 1006 001c 7A68     		ldr	r2, [r7, #4]
 1007 001e 9200     		lsl	r2, r2, #2
 1008 0020 D258     		ldr	r2, [r2, r3]
 1009 0022 8023     		mov	r3, #128
 1010 0024 DB00     		lsl	r3, r3, #3
 1011 0026 1340     		and	r3, r2
 1012 0028 08D0     		beq	.L72
 734:.\Generated_Source\PSoC4/Sensor_ADC.c ****             {
 735:.\Generated_Source\PSoC4/Sensor_ADC.c ****                 adcCounts /= Sensor_ADC_DEFAULT_AVG_SAMPLES_DIV;
 1013              		.loc 1 735 0
 1014 002a BA1C     		add	r2, r7, #2
 1015 002c BB1C     		add	r3, r7, #2
 1016 002e 0021     		mov	r1, #0
 1017 0030 5B5E     		ldrsh	r3, [r3, r1]
 1018 0032 002B     		cmp	r3, #0
 1019 0034 00DA     		bge	.L73
 1020 0036 0733     		add	r3, r3, #7
 1021              	.L73:
 1022 0038 DB10     		asr	r3, r3, #3
 1023 003a 1380     		strh	r3, [r2]
 1024              	.L72:
 736:.\Generated_Source\PSoC4/Sensor_ADC.c ****             }
ARM GAS  C:\Users\jsing\AppData\Local\Temp\ccIpowyF.s 			page 32


 737:.\Generated_Source\PSoC4/Sensor_ADC.c ****         #endif /* Sensor_ADC_DEFAULT_AVG_MODE == Sensor_ADC__ACCUMULATE */
 738:.\Generated_Source\PSoC4/Sensor_ADC.c **** 
 739:.\Generated_Source\PSoC4/Sensor_ADC.c ****         /* Subtract ADC offset */
 740:.\Generated_Source\PSoC4/Sensor_ADC.c ****         adcCounts -= Sensor_ADC_offset[chan];
 1025              		.loc 1 740 0
 1026 003c BB1C     		add	r3, r7, #2
 1027 003e 1A88     		ldrh	r2, [r3]
 1028 0040 1E4B     		ldr	r3, .L79+4
 1029 0042 7968     		ldr	r1, [r7, #4]
 1030 0044 4900     		lsl	r1, r1, #1
 1031 0046 CB5A     		ldrh	r3, [r1, r3]
 1032 0048 9BB2     		uxth	r3, r3
 1033 004a 9BB2     		uxth	r3, r3
 1034 004c D31A     		sub	r3, r2, r3
 1035 004e 9AB2     		uxth	r2, r3
 1036 0050 BB1C     		add	r3, r7, #2
 1037 0052 1A80     		strh	r2, [r3]
 741:.\Generated_Source\PSoC4/Sensor_ADC.c **** 
 742:.\Generated_Source\PSoC4/Sensor_ADC.c ****         mVolts = (int16)((((int32)adcCounts * Sensor_ADC_10MV_COUNTS) + ( (adcCounts > 0) ?
 1038              		.loc 1 742 0
 1039 0054 BB1C     		add	r3, r7, #2
 1040 0056 0022     		mov	r2, #0
 1041 0058 9B5E     		ldrsh	r3, [r3, r2]
 1042 005a 194A     		ldr	r2, .L79+8
 1043 005c 5A43     		mul	r2, r3
 743:.\Generated_Source\PSoC4/Sensor_ADC.c ****                  (Sensor_ADC_countsPer10Volt[chan] / 2) : (-(Sensor_ADC_countsPer10Volt[chan] / 2))
 1044              		.loc 1 743 0
 1045 005e BB1C     		add	r3, r7, #2
 1046 0060 0021     		mov	r1, #0
 1047 0062 5B5E     		ldrsh	r3, [r3, r1]
 1048 0064 002B     		cmp	r3, #0
 1049 0066 08DD     		ble	.L74
 1050              		.loc 1 743 0 is_stmt 0 discriminator 1
 1051 0068 164B     		ldr	r3, .L79+12
 1052 006a 7968     		ldr	r1, [r7, #4]
 1053 006c 8900     		lsl	r1, r1, #2
 1054 006e CB58     		ldr	r3, [r1, r3]
 1055 0070 002B     		cmp	r3, #0
 1056 0072 00DA     		bge	.L75
 1057 0074 0133     		add	r3, r3, #1
 1058              	.L75:
 1059 0076 5B10     		asr	r3, r3, #1
 1060 0078 08E0     		b	.L76
 1061              	.L74:
 1062              		.loc 1 743 0 discriminator 2
 1063 007a 124B     		ldr	r3, .L79+12
 1064 007c 7968     		ldr	r1, [r7, #4]
 1065 007e 8900     		lsl	r1, r1, #2
 1066 0080 CB58     		ldr	r3, [r1, r3]
 1067 0082 002B     		cmp	r3, #0
 1068 0084 00DA     		bge	.L77
 1069 0086 0133     		add	r3, r3, #1
 1070              	.L77:
 1071 0088 5B10     		asr	r3, r3, #1
 1072 008a 5B42     		neg	r3, r3
 1073              	.L76:
 742:.\Generated_Source\PSoC4/Sensor_ADC.c ****         mVolts = (int16)((((int32)adcCounts * Sensor_ADC_10MV_COUNTS) + ( (adcCounts > 0) ?
ARM GAS  C:\Users\jsing\AppData\Local\Temp\ccIpowyF.s 			page 33


 1074              		.loc 1 742 0 is_stmt 1
 1075 008c D218     		add	r2, r2, r3
 744:.\Generated_Source\PSoC4/Sensor_ADC.c ****                  / Sensor_ADC_countsPer10Volt[chan]);
 1076              		.loc 1 744 0
 1077 008e 0D4B     		ldr	r3, .L79+12
 1078 0090 7968     		ldr	r1, [r7, #4]
 1079 0092 8900     		lsl	r1, r1, #2
 1080 0094 CB58     		ldr	r3, [r1, r3]
 1081 0096 101C     		mov	r0, r2
 1082 0098 191C     		mov	r1, r3
 1083 009a FFF7FEFF 		bl	__aeabi_idiv
 1084 009e 031C     		mov	r3, r0
 1085 00a0 1A1C     		mov	r2, r3
 742:.\Generated_Source\PSoC4/Sensor_ADC.c ****         mVolts = (int16)((((int32)adcCounts * Sensor_ADC_10MV_COUNTS) + ( (adcCounts > 0) ?
 1086              		.loc 1 742 0
 1087 00a2 3B1C     		mov	r3, r7
 1088 00a4 0E33     		add	r3, r3, #14
 1089 00a6 1A80     		strh	r2, [r3]
 745:.\Generated_Source\PSoC4/Sensor_ADC.c **** 
 746:.\Generated_Source\PSoC4/Sensor_ADC.c ****         return( mVolts );
 1090              		.loc 1 746 0
 1091 00a8 3B1C     		mov	r3, r7
 1092 00aa 0E33     		add	r3, r3, #14
 1093 00ac 1B88     		ldrh	r3, [r3]
 1094 00ae 1BB2     		sxth	r3, r3
 747:.\Generated_Source\PSoC4/Sensor_ADC.c ****     }
 1095              		.loc 1 747 0
 1096 00b0 181C     		mov	r0, r3
 1097 00b2 BD46     		mov	sp, r7
 1098 00b4 04B0     		add	sp, sp, #16
 1099              		@ sp needed
 1100 00b6 80BD     		pop	{r7, pc}
 1101              	.L80:
 1102              		.align	2
 1103              	.L79:
 1104 00b8 00000000 		.word	Sensor_ADC_channelsConfig
 1105 00bc 00000000 		.word	Sensor_ADC_offset
 1106 00c0 10270000 		.word	10000
 1107 00c4 00000000 		.word	Sensor_ADC_countsPer10Volt
 1108              		.cfi_endproc
 1109              	.LFE17:
 1110              		.size	Sensor_ADC_CountsTo_mVolts, .-Sensor_ADC_CountsTo_mVolts
 1111              		.global	__aeabi_lmul
 1112              		.global	__aeabi_ldivmod
 1113              		.section	.text.Sensor_ADC_CountsTo_uVolts,"ax",%progbits
 1114              		.align	2
 1115              		.global	Sensor_ADC_CountsTo_uVolts
 1116              		.code	16
 1117              		.thumb_func
 1118              		.type	Sensor_ADC_CountsTo_uVolts, %function
 1119              	Sensor_ADC_CountsTo_uVolts:
 1120              	.LFB18:
 748:.\Generated_Source\PSoC4/Sensor_ADC.c **** 
 749:.\Generated_Source\PSoC4/Sensor_ADC.c **** 
 750:.\Generated_Source\PSoC4/Sensor_ADC.c ****     /*******************************************************************************
 751:.\Generated_Source\PSoC4/Sensor_ADC.c ****     * Function Name: Sensor_ADC_CountsTo_uVolts
 752:.\Generated_Source\PSoC4/Sensor_ADC.c ****     ********************************************************************************
ARM GAS  C:\Users\jsing\AppData\Local\Temp\ccIpowyF.s 			page 34


 753:.\Generated_Source\PSoC4/Sensor_ADC.c ****     *
 754:.\Generated_Source\PSoC4/Sensor_ADC.c ****     * Summary:
 755:.\Generated_Source\PSoC4/Sensor_ADC.c ****     *  This function converts ADC counts to micro Volts
 756:.\Generated_Source\PSoC4/Sensor_ADC.c ****     *  This function is not available when left data format justification selected.
 757:.\Generated_Source\PSoC4/Sensor_ADC.c ****     *
 758:.\Generated_Source\PSoC4/Sensor_ADC.c ****     * Parameters:
 759:.\Generated_Source\PSoC4/Sensor_ADC.c ****     *  chan: The ADC channel number.
 760:.\Generated_Source\PSoC4/Sensor_ADC.c ****     *  adcCounts: Result from the ADC conversion
 761:.\Generated_Source\PSoC4/Sensor_ADC.c ****     *
 762:.\Generated_Source\PSoC4/Sensor_ADC.c ****     * Return:
 763:.\Generated_Source\PSoC4/Sensor_ADC.c ****     *  Results in uVolts
 764:.\Generated_Source\PSoC4/Sensor_ADC.c ****     *
 765:.\Generated_Source\PSoC4/Sensor_ADC.c ****     * Global variables:
 766:.\Generated_Source\PSoC4/Sensor_ADC.c ****     *  Sensor_ADC_countsPer10Volt:  used to convert ADC counts to uVolts.
 767:.\Generated_Source\PSoC4/Sensor_ADC.c ****     *  Sensor_ADC_Offset:  Used as the offset while converting ADC counts
 768:.\Generated_Source\PSoC4/Sensor_ADC.c ****     *   to mVolts.
 769:.\Generated_Source\PSoC4/Sensor_ADC.c ****     *
 770:.\Generated_Source\PSoC4/Sensor_ADC.c ****     * Theory:
 771:.\Generated_Source\PSoC4/Sensor_ADC.c ****     *  Care must be taken to not exceed the maximum value for a 31 bit signed
 772:.\Generated_Source\PSoC4/Sensor_ADC.c ****     *  number in the conversion to uVolts and at the same time not loose
 773:.\Generated_Source\PSoC4/Sensor_ADC.c ****     *  resolution.
 774:.\Generated_Source\PSoC4/Sensor_ADC.c ****     *  To convert adcCounts to microVolts it is required to be multiplied
 775:.\Generated_Source\PSoC4/Sensor_ADC.c ****     *  on 10 million and later divide on gain in counts per 10V.
 776:.\Generated_Source\PSoC4/Sensor_ADC.c ****     *
 777:.\Generated_Source\PSoC4/Sensor_ADC.c ****     *******************************************************************************/
 778:.\Generated_Source\PSoC4/Sensor_ADC.c ****     int32 Sensor_ADC_CountsTo_uVolts(uint32 chan, int16 adcCounts)
 779:.\Generated_Source\PSoC4/Sensor_ADC.c ****     {
 1121              		.loc 1 779 0
 1122              		.cfi_startproc
 1123 0000 B0B5     		push	{r4, r5, r7, lr}
 1124              		.cfi_def_cfa_offset 16
 1125              		.cfi_offset 4, -16
 1126              		.cfi_offset 5, -12
 1127              		.cfi_offset 7, -8
 1128              		.cfi_offset 14, -4
 1129 0002 86B0     		sub	sp, sp, #24
 1130              		.cfi_def_cfa_offset 40
 1131 0004 00AF     		add	r7, sp, #0
 1132              		.cfi_def_cfa_register 7
 1133 0006 F860     		str	r0, [r7, #12]
 1134 0008 0A1C     		mov	r2, r1
 1135 000a 3B1C     		mov	r3, r7
 1136 000c 0A33     		add	r3, r3, #10
 1137 000e 1A80     		strh	r2, [r3]
 780:.\Generated_Source\PSoC4/Sensor_ADC.c ****         int64 uVolts;
 781:.\Generated_Source\PSoC4/Sensor_ADC.c **** 
 782:.\Generated_Source\PSoC4/Sensor_ADC.c ****         /* Halt CPU in debug mode if channel is out of valid range */
 783:.\Generated_Source\PSoC4/Sensor_ADC.c ****         CYASSERT(chan < Sensor_ADC_TOTAL_CHANNELS_NUM);
 1138              		.loc 1 783 0
 1139 0010 FB68     		ldr	r3, [r7, #12]
 1140 0012 022B     		cmp	r3, #2
 1141 0014 02D9     		bls	.L82
 1142              		.loc 1 783 0 is_stmt 0 discriminator 1
 1143 0016 0020     		mov	r0, #0
 1144 0018 FFF7FEFF 		bl	CyHalt
 1145              	.L82:
 784:.\Generated_Source\PSoC4/Sensor_ADC.c **** 
ARM GAS  C:\Users\jsing\AppData\Local\Temp\ccIpowyF.s 			page 35


 785:.\Generated_Source\PSoC4/Sensor_ADC.c ****         /* Divide the adcCount when accumulate averaging mode selected */
 786:.\Generated_Source\PSoC4/Sensor_ADC.c ****         #if(Sensor_ADC_DEFAULT_AVG_MODE == Sensor_ADC__ACCUMULATE)
 787:.\Generated_Source\PSoC4/Sensor_ADC.c ****             if((Sensor_ADC_channelsConfig[chan] & Sensor_ADC_AVERAGING_EN) != 0u)
 1146              		.loc 1 787 0 is_stmt 1
 1147 001c 244B     		ldr	r3, .L86+8
 1148 001e FA68     		ldr	r2, [r7, #12]
 1149 0020 9200     		lsl	r2, r2, #2
 1150 0022 D258     		ldr	r2, [r2, r3]
 1151 0024 8023     		mov	r3, #128
 1152 0026 DB00     		lsl	r3, r3, #3
 1153 0028 1340     		and	r3, r2
 1154 002a 0AD0     		beq	.L83
 788:.\Generated_Source\PSoC4/Sensor_ADC.c ****             {
 789:.\Generated_Source\PSoC4/Sensor_ADC.c ****                 adcCounts /= Sensor_ADC_DEFAULT_AVG_SAMPLES_DIV;
 1155              		.loc 1 789 0
 1156 002c 3A1C     		mov	r2, r7
 1157 002e 0A32     		add	r2, r2, #10
 1158 0030 3B1C     		mov	r3, r7
 1159 0032 0A33     		add	r3, r3, #10
 1160 0034 0021     		mov	r1, #0
 1161 0036 5B5E     		ldrsh	r3, [r3, r1]
 1162 0038 002B     		cmp	r3, #0
 1163 003a 00DA     		bge	.L84
 1164 003c 0733     		add	r3, r3, #7
 1165              	.L84:
 1166 003e DB10     		asr	r3, r3, #3
 1167 0040 1380     		strh	r3, [r2]
 1168              	.L83:
 790:.\Generated_Source\PSoC4/Sensor_ADC.c ****             }
 791:.\Generated_Source\PSoC4/Sensor_ADC.c ****         #endif /* Sensor_ADC_DEFAULT_AVG_MODE == Sensor_ADC__ACCUMULATE */
 792:.\Generated_Source\PSoC4/Sensor_ADC.c **** 
 793:.\Generated_Source\PSoC4/Sensor_ADC.c ****         /* Subtract ADC offset */
 794:.\Generated_Source\PSoC4/Sensor_ADC.c ****         adcCounts -= Sensor_ADC_offset[chan];
 1169              		.loc 1 794 0
 1170 0042 3B1C     		mov	r3, r7
 1171 0044 0A33     		add	r3, r3, #10
 1172 0046 1A88     		ldrh	r2, [r3]
 1173 0048 1A4B     		ldr	r3, .L86+12
 1174 004a F968     		ldr	r1, [r7, #12]
 1175 004c 4900     		lsl	r1, r1, #1
 1176 004e CB5A     		ldrh	r3, [r1, r3]
 1177 0050 9BB2     		uxth	r3, r3
 1178 0052 9BB2     		uxth	r3, r3
 1179 0054 D31A     		sub	r3, r2, r3
 1180 0056 9AB2     		uxth	r2, r3
 1181 0058 3B1C     		mov	r3, r7
 1182 005a 0A33     		add	r3, r3, #10
 1183 005c 1A80     		strh	r2, [r3]
 795:.\Generated_Source\PSoC4/Sensor_ADC.c **** 
 796:.\Generated_Source\PSoC4/Sensor_ADC.c ****         uVolts = ((int64)adcCounts * Sensor_ADC_10UV_COUNTS) / Sensor_ADC_countsPer10Volt[chan];
 1184              		.loc 1 796 0
 1185 005e 3B1C     		mov	r3, r7
 1186 0060 0A33     		add	r3, r3, #10
 1187 0062 1B88     		ldrh	r3, [r3]
 1188 0064 1BB2     		sxth	r3, r3
 1189 0066 3B60     		str	r3, [r7]
 1190 0068 DB17     		asr	r3, r3, #31
ARM GAS  C:\Users\jsing\AppData\Local\Temp\ccIpowyF.s 			page 36


 1191 006a 7B60     		str	r3, [r7, #4]
 1192 006c 3868     		ldr	r0, [r7]
 1193 006e 7968     		ldr	r1, [r7, #4]
 1194 0070 0E4B     		ldr	r3, .L86+4
 1195 0072 0D4A     		ldr	r2, .L86
 1196 0074 FFF7FEFF 		bl	__aeabi_lmul
 1197 0078 021C     		mov	r2, r0
 1198 007a 0B1C     		mov	r3, r1
 1199 007c 0E49     		ldr	r1, .L86+16
 1200 007e F868     		ldr	r0, [r7, #12]
 1201 0080 8000     		lsl	r0, r0, #2
 1202 0082 4158     		ldr	r1, [r0, r1]
 1203 0084 0C1C     		mov	r4, r1
 1204 0086 C917     		asr	r1, r1, #31
 1205 0088 0D1C     		mov	r5, r1
 1206 008a 101C     		mov	r0, r2
 1207 008c 191C     		mov	r1, r3
 1208 008e 221C     		mov	r2, r4
 1209 0090 2B1C     		mov	r3, r5
 1210 0092 FFF7FEFF 		bl	__aeabi_ldivmod
 1211 0096 031C     		mov	r3, r0
 1212 0098 0C1C     		mov	r4, r1
 1213 009a 3B61     		str	r3, [r7, #16]
 1214 009c 7C61     		str	r4, [r7, #20]
 797:.\Generated_Source\PSoC4/Sensor_ADC.c **** 
 798:.\Generated_Source\PSoC4/Sensor_ADC.c ****         return( (int32)uVolts );
 1215              		.loc 1 798 0
 1216 009e 3B69     		ldr	r3, [r7, #16]
 799:.\Generated_Source\PSoC4/Sensor_ADC.c ****     }
 1217              		.loc 1 799 0
 1218 00a0 181C     		mov	r0, r3
 1219 00a2 BD46     		mov	sp, r7
 1220 00a4 06B0     		add	sp, sp, #24
 1221              		@ sp needed
 1222 00a6 B0BD     		pop	{r4, r5, r7, pc}
 1223              	.L87:
 1224              		.align	3
 1225              	.L86:
 1226 00a8 80969800 		.word	10000000
 1227 00ac 00000000 		.word	0
 1228 00b0 00000000 		.word	Sensor_ADC_channelsConfig
 1229 00b4 00000000 		.word	Sensor_ADC_offset
 1230 00b8 00000000 		.word	Sensor_ADC_countsPer10Volt
 1231              		.cfi_endproc
 1232              	.LFE18:
 1233              		.size	Sensor_ADC_CountsTo_uVolts, .-Sensor_ADC_CountsTo_uVolts
 1234              		.global	__aeabi_i2f
 1235              		.global	__aeabi_fmul
 1236              		.global	__aeabi_fdiv
 1237 00bc C046C046 		.section	.text.Sensor_ADC_CountsTo_Volts,"ax",%progbits
 1238              		.align	2
 1239              		.global	Sensor_ADC_CountsTo_Volts
 1240              		.code	16
 1241              		.thumb_func
 1242              		.type	Sensor_ADC_CountsTo_Volts, %function
 1243              	Sensor_ADC_CountsTo_Volts:
 1244              	.LFB19:
ARM GAS  C:\Users\jsing\AppData\Local\Temp\ccIpowyF.s 			page 37


 800:.\Generated_Source\PSoC4/Sensor_ADC.c **** 
 801:.\Generated_Source\PSoC4/Sensor_ADC.c **** 
 802:.\Generated_Source\PSoC4/Sensor_ADC.c ****     /*******************************************************************************
 803:.\Generated_Source\PSoC4/Sensor_ADC.c ****     * Function Name: Sensor_ADC_CountsTo_Volts
 804:.\Generated_Source\PSoC4/Sensor_ADC.c ****     ********************************************************************************
 805:.\Generated_Source\PSoC4/Sensor_ADC.c ****     *
 806:.\Generated_Source\PSoC4/Sensor_ADC.c ****     * Summary:
 807:.\Generated_Source\PSoC4/Sensor_ADC.c ****     *  Converts the ADC output to Volts as a floating point number.
 808:.\Generated_Source\PSoC4/Sensor_ADC.c ****     *  This function is not available when left data format justification selected.
 809:.\Generated_Source\PSoC4/Sensor_ADC.c ****     *
 810:.\Generated_Source\PSoC4/Sensor_ADC.c ****     * Parameters:
 811:.\Generated_Source\PSoC4/Sensor_ADC.c ****     *  chan: The ADC channel number.
 812:.\Generated_Source\PSoC4/Sensor_ADC.c ****     *  Result from the ADC conversion
 813:.\Generated_Source\PSoC4/Sensor_ADC.c ****     *
 814:.\Generated_Source\PSoC4/Sensor_ADC.c ****     * Return:
 815:.\Generated_Source\PSoC4/Sensor_ADC.c ****     *  Results in Volts
 816:.\Generated_Source\PSoC4/Sensor_ADC.c ****     *
 817:.\Generated_Source\PSoC4/Sensor_ADC.c ****     * Global variables:
 818:.\Generated_Source\PSoC4/Sensor_ADC.c ****     *  Sensor_ADC_countsPer10Volt:  used to convert ADC counts to Volts.
 819:.\Generated_Source\PSoC4/Sensor_ADC.c ****     *  Sensor_ADC_Offset:  Used as the offset while converting ADC counts
 820:.\Generated_Source\PSoC4/Sensor_ADC.c ****     *   to mVolts.
 821:.\Generated_Source\PSoC4/Sensor_ADC.c ****     *
 822:.\Generated_Source\PSoC4/Sensor_ADC.c ****     *******************************************************************************/
 823:.\Generated_Source\PSoC4/Sensor_ADC.c ****     float32 Sensor_ADC_CountsTo_Volts(uint32 chan, int16 adcCounts)
 824:.\Generated_Source\PSoC4/Sensor_ADC.c ****     {
 1245              		.loc 1 824 0
 1246              		.cfi_startproc
 1247 0000 90B5     		push	{r4, r7, lr}
 1248              		.cfi_def_cfa_offset 12
 1249              		.cfi_offset 4, -12
 1250              		.cfi_offset 7, -8
 1251              		.cfi_offset 14, -4
 1252 0002 85B0     		sub	sp, sp, #20
 1253              		.cfi_def_cfa_offset 32
 1254 0004 00AF     		add	r7, sp, #0
 1255              		.cfi_def_cfa_register 7
 1256 0006 7860     		str	r0, [r7, #4]
 1257 0008 0A1C     		mov	r2, r1
 1258 000a BB1C     		add	r3, r7, #2
 1259 000c 1A80     		strh	r2, [r3]
 825:.\Generated_Source\PSoC4/Sensor_ADC.c ****         float32 volts;
 826:.\Generated_Source\PSoC4/Sensor_ADC.c **** 
 827:.\Generated_Source\PSoC4/Sensor_ADC.c ****         /* Halt CPU in debug mode if channel is out of valid range */
 828:.\Generated_Source\PSoC4/Sensor_ADC.c ****         CYASSERT(chan < Sensor_ADC_TOTAL_CHANNELS_NUM);
 1260              		.loc 1 828 0
 1261 000e 7B68     		ldr	r3, [r7, #4]
 1262 0010 022B     		cmp	r3, #2
 1263 0012 02D9     		bls	.L89
 1264              		.loc 1 828 0 is_stmt 0 discriminator 1
 1265 0014 0020     		mov	r0, #0
 1266 0016 FFF7FEFF 		bl	CyHalt
 1267              	.L89:
 829:.\Generated_Source\PSoC4/Sensor_ADC.c **** 
 830:.\Generated_Source\PSoC4/Sensor_ADC.c ****         /* Divide the adcCount when accumulate averaging mode selected */
 831:.\Generated_Source\PSoC4/Sensor_ADC.c ****         #if(Sensor_ADC_DEFAULT_AVG_MODE == Sensor_ADC__ACCUMULATE)
 832:.\Generated_Source\PSoC4/Sensor_ADC.c ****             if((Sensor_ADC_channelsConfig[chan] & Sensor_ADC_AVERAGING_EN) != 0u)
 1268              		.loc 1 832 0 is_stmt 1
ARM GAS  C:\Users\jsing\AppData\Local\Temp\ccIpowyF.s 			page 38


 1269 001a 1E4B     		ldr	r3, .L93
 1270 001c 7A68     		ldr	r2, [r7, #4]
 1271 001e 9200     		lsl	r2, r2, #2
 1272 0020 D258     		ldr	r2, [r2, r3]
 1273 0022 8023     		mov	r3, #128
 1274 0024 DB00     		lsl	r3, r3, #3
 1275 0026 1340     		and	r3, r2
 1276 0028 08D0     		beq	.L90
 833:.\Generated_Source\PSoC4/Sensor_ADC.c ****             {
 834:.\Generated_Source\PSoC4/Sensor_ADC.c ****                 adcCounts /= Sensor_ADC_DEFAULT_AVG_SAMPLES_DIV;
 1277              		.loc 1 834 0
 1278 002a BA1C     		add	r2, r7, #2
 1279 002c BB1C     		add	r3, r7, #2
 1280 002e 0021     		mov	r1, #0
 1281 0030 5B5E     		ldrsh	r3, [r3, r1]
 1282 0032 002B     		cmp	r3, #0
 1283 0034 00DA     		bge	.L91
 1284 0036 0733     		add	r3, r3, #7
 1285              	.L91:
 1286 0038 DB10     		asr	r3, r3, #3
 1287 003a 1380     		strh	r3, [r2]
 1288              	.L90:
 835:.\Generated_Source\PSoC4/Sensor_ADC.c ****             }
 836:.\Generated_Source\PSoC4/Sensor_ADC.c ****         #endif /* Sensor_ADC_DEFAULT_AVG_MODE == Sensor_ADC__ACCUMULATE */
 837:.\Generated_Source\PSoC4/Sensor_ADC.c **** 
 838:.\Generated_Source\PSoC4/Sensor_ADC.c ****         /* Subtract ADC offset */
 839:.\Generated_Source\PSoC4/Sensor_ADC.c ****         adcCounts -= Sensor_ADC_offset[chan];
 1289              		.loc 1 839 0
 1290 003c BB1C     		add	r3, r7, #2
 1291 003e 1A88     		ldrh	r2, [r3]
 1292 0040 154B     		ldr	r3, .L93+4
 1293 0042 7968     		ldr	r1, [r7, #4]
 1294 0044 4900     		lsl	r1, r1, #1
 1295 0046 CB5A     		ldrh	r3, [r1, r3]
 1296 0048 9BB2     		uxth	r3, r3
 1297 004a 9BB2     		uxth	r3, r3
 1298 004c D31A     		sub	r3, r2, r3
 1299 004e 9AB2     		uxth	r2, r3
 1300 0050 BB1C     		add	r3, r7, #2
 1301 0052 1A80     		strh	r2, [r3]
 840:.\Generated_Source\PSoC4/Sensor_ADC.c **** 
 841:.\Generated_Source\PSoC4/Sensor_ADC.c ****         volts = ((float32)adcCounts * Sensor_ADC_10V_COUNTS) / (float32)Sensor_ADC_countsPer10Volt[
 1302              		.loc 1 841 0
 1303 0054 BB1C     		add	r3, r7, #2
 1304 0056 0022     		mov	r2, #0
 1305 0058 9B5E     		ldrsh	r3, [r3, r2]
 1306 005a 181C     		mov	r0, r3
 1307 005c FFF7FEFF 		bl	__aeabi_i2f
 1308 0060 031C     		add	r3, r0, #0
 1309 0062 181C     		add	r0, r3, #0
 1310 0064 0D49     		ldr	r1, .L93+8
 1311 0066 FFF7FEFF 		bl	__aeabi_fmul
 1312 006a 031C     		add	r3, r0, #0
 1313 006c 1C1C     		add	r4, r3, #0
 1314 006e 0C4B     		ldr	r3, .L93+12
 1315 0070 7A68     		ldr	r2, [r7, #4]
 1316 0072 9200     		lsl	r2, r2, #2
ARM GAS  C:\Users\jsing\AppData\Local\Temp\ccIpowyF.s 			page 39


 1317 0074 D358     		ldr	r3, [r2, r3]
 1318 0076 181C     		mov	r0, r3
 1319 0078 FFF7FEFF 		bl	__aeabi_i2f
 1320 007c 031C     		add	r3, r0, #0
 1321 007e 201C     		add	r0, r4, #0
 1322 0080 191C     		add	r1, r3, #0
 1323 0082 FFF7FEFF 		bl	__aeabi_fdiv
 1324 0086 031C     		add	r3, r0, #0
 1325 0088 FB60     		str	r3, [r7, #12]
 842:.\Generated_Source\PSoC4/Sensor_ADC.c **** 
 843:.\Generated_Source\PSoC4/Sensor_ADC.c ****         return( volts );
 1326              		.loc 1 843 0
 1327 008a FB68     		ldr	r3, [r7, #12]
 844:.\Generated_Source\PSoC4/Sensor_ADC.c ****     }
 1328              		.loc 1 844 0
 1329 008c 181C     		add	r0, r3, #0
 1330 008e BD46     		mov	sp, r7
 1331 0090 05B0     		add	sp, sp, #20
 1332              		@ sp needed
 1333 0092 90BD     		pop	{r4, r7, pc}
 1334              	.L94:
 1335              		.align	2
 1336              	.L93:
 1337 0094 00000000 		.word	Sensor_ADC_channelsConfig
 1338 0098 00000000 		.word	Sensor_ADC_offset
 1339 009c 00002041 		.word	1092616192
 1340 00a0 00000000 		.word	Sensor_ADC_countsPer10Volt
 1341              		.cfi_endproc
 1342              	.LFE19:
 1343              		.size	Sensor_ADC_CountsTo_Volts, .-Sensor_ADC_CountsTo_Volts
 1344              		.section	.rodata
 1345              		.align	2
 1346              		.type	Sensor_ADC_InputsPlacement.4747, %object
 1347              		.size	Sensor_ADC_InputsPlacement.4747, 3
 1348              	Sensor_ADC_InputsPlacement.4747:
 1349 000c 03       		.byte	3
 1350 000d 04       		.byte	4
 1351 000e 05       		.byte	5
 1352 000f 00       		.text
 1353              	.Letext0:
 1354              		.file 2 ".\\Generated_Source\\PSoC4\\cytypes.h"